
DSRC.elf:     file format elf32-littlearm

Sections:
Idx Name          Size      VMA       LMA       File off  Algn
  0 .isr_vector   000001c4  08000000  08000000  00001000  2**0
                  CONTENTS, ALLOC, LOAD, READONLY, DATA
  1 .text         00003c98  080001c8  080001c8  000011c8  2**3
                  CONTENTS, ALLOC, LOAD, READONLY, CODE
  2 .rodata       000003d8  08003e60  08003e60  00004e60  2**2
                  CONTENTS, ALLOC, LOAD, READONLY, DATA
  3 .ARM.extab    00000000  08004238  08004238  000060b0  2**0
                  CONTENTS, READONLY
  4 .ARM          00000000  08004238  08004238  000060b0  2**0
                  CONTENTS, READONLY
  5 .preinit_array 00000000  08004238  08004238  000060b0  2**0
                  CONTENTS, ALLOC, LOAD, DATA
  6 .init_array   00000004  08004238  08004238  00005238  2**2
                  CONTENTS, ALLOC, LOAD, READONLY, DATA
  7 .fini_array   00000004  0800423c  0800423c  0000523c  2**2
                  CONTENTS, ALLOC, LOAD, READONLY, DATA
  8 .data         000000b0  20000000  08004240  00006000  2**2
                  CONTENTS, ALLOC, LOAD, DATA
  9 .bss          00000530  200000b0  080042f0  000060b0  2**2
                  ALLOC
 10 ._user_heap_stack 00000600  200005e0  080042f0  000065e0  2**0
                  ALLOC
 11 .ARM.attributes 0000002a  00000000  00000000  000060b0  2**0
                  CONTENTS, READONLY
 12 .debug_info   00004f16  00000000  00000000  000060da  2**0
                  CONTENTS, READONLY, DEBUGGING, OCTETS
 13 .debug_abbrev 0000171d  00000000  00000000  0000aff0  2**0
                  CONTENTS, READONLY, DEBUGGING, OCTETS
 14 .debug_aranges 00000528  00000000  00000000  0000c710  2**3
                  CONTENTS, READONLY, DEBUGGING, OCTETS
 15 .debug_rnglists 000003b9  00000000  00000000  0000cc38  2**0
                  CONTENTS, READONLY, DEBUGGING, OCTETS
 16 .debug_macro  00003157  00000000  00000000  0000cff1  2**0
                  CONTENTS, READONLY, DEBUGGING, OCTETS
 17 .debug_line   00007c36  00000000  00000000  00010148  2**0
                  CONTENTS, READONLY, DEBUGGING, OCTETS
 18 .debug_str    0000abbd  00000000  00000000  00017d7e  2**0
                  CONTENTS, READONLY, DEBUGGING, OCTETS
 19 .comment      00000043  00000000  00000000  0002293b  2**0
                  CONTENTS, READONLY
 20 .debug_frame  0000170c  00000000  00000000  00022980  2**2
                  CONTENTS, READONLY, DEBUGGING, OCTETS
 21 .debug_line_str 00000064  00000000  00000000  0002408c  2**0
                  CONTENTS, READONLY, DEBUGGING, OCTETS

Disassembly of section .text:

080001c8 <__do_global_dtors_aux>:
 80001c8:	b510      	push	{r4, lr}
 80001ca:	4c05      	ldr	r4, [pc, #20]	@ (80001e0 <__do_global_dtors_aux+0x18>)
 80001cc:	7823      	ldrb	r3, [r4, #0]
 80001ce:	b933      	cbnz	r3, 80001de <__do_global_dtors_aux+0x16>
 80001d0:	4b04      	ldr	r3, [pc, #16]	@ (80001e4 <__do_global_dtors_aux+0x1c>)
 80001d2:	b113      	cbz	r3, 80001da <__do_global_dtors_aux+0x12>
 80001d4:	4804      	ldr	r0, [pc, #16]	@ (80001e8 <__do_global_dtors_aux+0x20>)
 80001d6:	f3af 8000 	nop.w
 80001da:	2301      	movs	r3, #1
 80001dc:	7023      	strb	r3, [r4, #0]
 80001de:	bd10      	pop	{r4, pc}
 80001e0:	200000b0 	.word	0x200000b0
 80001e4:	00000000 	.word	0x00000000
 80001e8:	08003e48 	.word	0x08003e48

080001ec <frame_dummy>:
 80001ec:	b508      	push	{r3, lr}
 80001ee:	4b03      	ldr	r3, [pc, #12]	@ (80001fc <frame_dummy+0x10>)
 80001f0:	b11b      	cbz	r3, 80001fa <frame_dummy+0xe>
 80001f2:	4903      	ldr	r1, [pc, #12]	@ (8000200 <frame_dummy+0x14>)
 80001f4:	4803      	ldr	r0, [pc, #12]	@ (8000204 <frame_dummy+0x18>)
 80001f6:	f3af 8000 	nop.w
 80001fa:	bd08      	pop	{r3, pc}
 80001fc:	00000000 	.word	0x00000000
 8000200:	200000b4 	.word	0x200000b4
 8000204:	08003e48 	.word	0x08003e48

08000208 <__aeabi_drsub>:
 8000208:	f081 4100 	eor.w	r1, r1, #2147483648	@ 0x80000000
 800020c:	e002      	b.n	8000214 <__adddf3>
 800020e:	bf00      	nop

08000210 <__aeabi_dsub>:
 8000210:	f083 4300 	eor.w	r3, r3, #2147483648	@ 0x80000000

08000214 <__adddf3>:
 8000214:	b530      	push	{r4, r5, lr}
 8000216:	ea4f 0441 	mov.w	r4, r1, lsl #1
 800021a:	ea4f 0543 	mov.w	r5, r3, lsl #1
 800021e:	ea94 0f05 	teq	r4, r5
 8000222:	bf08      	it	eq
 8000224:	ea90 0f02 	teqeq	r0, r2
 8000228:	bf1f      	itttt	ne
 800022a:	ea54 0c00 	orrsne.w	ip, r4, r0
 800022e:	ea55 0c02 	orrsne.w	ip, r5, r2
 8000232:	ea7f 5c64 	mvnsne.w	ip, r4, asr #21
 8000236:	ea7f 5c65 	mvnsne.w	ip, r5, asr #21
 800023a:	f000 80e2 	beq.w	8000402 <__adddf3+0x1ee>
 800023e:	ea4f 5454 	mov.w	r4, r4, lsr #21
 8000242:	ebd4 5555 	rsbs	r5, r4, r5, lsr #21
 8000246:	bfb8      	it	lt
 8000248:	426d      	neglt	r5, r5
 800024a:	dd0c      	ble.n	8000266 <__adddf3+0x52>
 800024c:	442c      	add	r4, r5
 800024e:	ea80 0202 	eor.w	r2, r0, r2
 8000252:	ea81 0303 	eor.w	r3, r1, r3
 8000256:	ea82 0000 	eor.w	r0, r2, r0
 800025a:	ea83 0101 	eor.w	r1, r3, r1
 800025e:	ea80 0202 	eor.w	r2, r0, r2
 8000262:	ea81 0303 	eor.w	r3, r1, r3
 8000266:	2d36      	cmp	r5, #54	@ 0x36
 8000268:	bf88      	it	hi
 800026a:	bd30      	pophi	{r4, r5, pc}
 800026c:	f011 4f00 	tst.w	r1, #2147483648	@ 0x80000000
 8000270:	ea4f 3101 	mov.w	r1, r1, lsl #12
 8000274:	f44f 1c80 	mov.w	ip, #1048576	@ 0x100000
 8000278:	ea4c 3111 	orr.w	r1, ip, r1, lsr #12
 800027c:	d002      	beq.n	8000284 <__adddf3+0x70>
 800027e:	4240      	negs	r0, r0
 8000280:	eb61 0141 	sbc.w	r1, r1, r1, lsl #1
 8000284:	f013 4f00 	tst.w	r3, #2147483648	@ 0x80000000
 8000288:	ea4f 3303 	mov.w	r3, r3, lsl #12
 800028c:	ea4c 3313 	orr.w	r3, ip, r3, lsr #12
 8000290:	d002      	beq.n	8000298 <__adddf3+0x84>
 8000292:	4252      	negs	r2, r2
 8000294:	eb63 0343 	sbc.w	r3, r3, r3, lsl #1
 8000298:	ea94 0f05 	teq	r4, r5
 800029c:	f000 80a7 	beq.w	80003ee <__adddf3+0x1da>
 80002a0:	f1a4 0401 	sub.w	r4, r4, #1
 80002a4:	f1d5 0e20 	rsbs	lr, r5, #32
 80002a8:	db0d      	blt.n	80002c6 <__adddf3+0xb2>
 80002aa:	fa02 fc0e 	lsl.w	ip, r2, lr
 80002ae:	fa22 f205 	lsr.w	r2, r2, r5
 80002b2:	1880      	adds	r0, r0, r2
 80002b4:	f141 0100 	adc.w	r1, r1, #0
 80002b8:	fa03 f20e 	lsl.w	r2, r3, lr
 80002bc:	1880      	adds	r0, r0, r2
 80002be:	fa43 f305 	asr.w	r3, r3, r5
 80002c2:	4159      	adcs	r1, r3
 80002c4:	e00e      	b.n	80002e4 <__adddf3+0xd0>
 80002c6:	f1a5 0520 	sub.w	r5, r5, #32
 80002ca:	f10e 0e20 	add.w	lr, lr, #32
 80002ce:	2a01      	cmp	r2, #1
 80002d0:	fa03 fc0e 	lsl.w	ip, r3, lr
 80002d4:	bf28      	it	cs
 80002d6:	f04c 0c02 	orrcs.w	ip, ip, #2
 80002da:	fa43 f305 	asr.w	r3, r3, r5
 80002de:	18c0      	adds	r0, r0, r3
 80002e0:	eb51 71e3 	adcs.w	r1, r1, r3, asr #31
 80002e4:	f001 4500 	and.w	r5, r1, #2147483648	@ 0x80000000
 80002e8:	d507      	bpl.n	80002fa <__adddf3+0xe6>
 80002ea:	f04f 0e00 	mov.w	lr, #0
 80002ee:	f1dc 0c00 	rsbs	ip, ip, #0
 80002f2:	eb7e 0000 	sbcs.w	r0, lr, r0
 80002f6:	eb6e 0101 	sbc.w	r1, lr, r1
 80002fa:	f5b1 1f80 	cmp.w	r1, #1048576	@ 0x100000
 80002fe:	d31b      	bcc.n	8000338 <__adddf3+0x124>
 8000300:	f5b1 1f00 	cmp.w	r1, #2097152	@ 0x200000
 8000304:	d30c      	bcc.n	8000320 <__adddf3+0x10c>
 8000306:	0849      	lsrs	r1, r1, #1
 8000308:	ea5f 0030 	movs.w	r0, r0, rrx
 800030c:	ea4f 0c3c 	mov.w	ip, ip, rrx
 8000310:	f104 0401 	add.w	r4, r4, #1
 8000314:	ea4f 5244 	mov.w	r2, r4, lsl #21
 8000318:	f512 0f80 	cmn.w	r2, #4194304	@ 0x400000
 800031c:	f080 809a 	bcs.w	8000454 <__adddf3+0x240>
 8000320:	f1bc 4f00 	cmp.w	ip, #2147483648	@ 0x80000000
 8000324:	bf08      	it	eq
 8000326:	ea5f 0c50 	movseq.w	ip, r0, lsr #1
 800032a:	f150 0000 	adcs.w	r0, r0, #0
 800032e:	eb41 5104 	adc.w	r1, r1, r4, lsl #20
 8000332:	ea41 0105 	orr.w	r1, r1, r5
 8000336:	bd30      	pop	{r4, r5, pc}
 8000338:	ea5f 0c4c 	movs.w	ip, ip, lsl #1
 800033c:	4140      	adcs	r0, r0
 800033e:	eb41 0101 	adc.w	r1, r1, r1
 8000342:	3c01      	subs	r4, #1
 8000344:	bf28      	it	cs
 8000346:	f5b1 1f80 	cmpcs.w	r1, #1048576	@ 0x100000
 800034a:	d2e9      	bcs.n	8000320 <__adddf3+0x10c>
 800034c:	f091 0f00 	teq	r1, #0
 8000350:	bf04      	itt	eq
 8000352:	4601      	moveq	r1, r0
 8000354:	2000      	moveq	r0, #0
 8000356:	fab1 f381 	clz	r3, r1
 800035a:	bf08      	it	eq
 800035c:	3320      	addeq	r3, #32
 800035e:	f1a3 030b 	sub.w	r3, r3, #11
 8000362:	f1b3 0220 	subs.w	r2, r3, #32
 8000366:	da0c      	bge.n	8000382 <__adddf3+0x16e>
 8000368:	320c      	adds	r2, #12
 800036a:	dd08      	ble.n	800037e <__adddf3+0x16a>
 800036c:	f102 0c14 	add.w	ip, r2, #20
 8000370:	f1c2 020c 	rsb	r2, r2, #12
 8000374:	fa01 f00c 	lsl.w	r0, r1, ip
 8000378:	fa21 f102 	lsr.w	r1, r1, r2
 800037c:	e00c      	b.n	8000398 <__adddf3+0x184>
 800037e:	f102 0214 	add.w	r2, r2, #20
 8000382:	bfd8      	it	le
 8000384:	f1c2 0c20 	rsble	ip, r2, #32
 8000388:	fa01 f102 	lsl.w	r1, r1, r2
 800038c:	fa20 fc0c 	lsr.w	ip, r0, ip
 8000390:	bfdc      	itt	le
 8000392:	ea41 010c 	orrle.w	r1, r1, ip
 8000396:	4090      	lslle	r0, r2
 8000398:	1ae4      	subs	r4, r4, r3
 800039a:	bfa2      	ittt	ge
 800039c:	eb01 5104 	addge.w	r1, r1, r4, lsl #20
 80003a0:	4329      	orrge	r1, r5
 80003a2:	bd30      	popge	{r4, r5, pc}
 80003a4:	ea6f 0404 	mvn.w	r4, r4
 80003a8:	3c1f      	subs	r4, #31
 80003aa:	da1c      	bge.n	80003e6 <__adddf3+0x1d2>
 80003ac:	340c      	adds	r4, #12
 80003ae:	dc0e      	bgt.n	80003ce <__adddf3+0x1ba>
 80003b0:	f104 0414 	add.w	r4, r4, #20
 80003b4:	f1c4 0220 	rsb	r2, r4, #32
 80003b8:	fa20 f004 	lsr.w	r0, r0, r4
 80003bc:	fa01 f302 	lsl.w	r3, r1, r2
 80003c0:	ea40 0003 	orr.w	r0, r0, r3
 80003c4:	fa21 f304 	lsr.w	r3, r1, r4
 80003c8:	ea45 0103 	orr.w	r1, r5, r3
 80003cc:	bd30      	pop	{r4, r5, pc}
 80003ce:	f1c4 040c 	rsb	r4, r4, #12
 80003d2:	f1c4 0220 	rsb	r2, r4, #32
 80003d6:	fa20 f002 	lsr.w	r0, r0, r2
 80003da:	fa01 f304 	lsl.w	r3, r1, r4
 80003de:	ea40 0003 	orr.w	r0, r0, r3
 80003e2:	4629      	mov	r1, r5
 80003e4:	bd30      	pop	{r4, r5, pc}
 80003e6:	fa21 f004 	lsr.w	r0, r1, r4
 80003ea:	4629      	mov	r1, r5
 80003ec:	bd30      	pop	{r4, r5, pc}
 80003ee:	f094 0f00 	teq	r4, #0
 80003f2:	f483 1380 	eor.w	r3, r3, #1048576	@ 0x100000
 80003f6:	bf06      	itte	eq
 80003f8:	f481 1180 	eoreq.w	r1, r1, #1048576	@ 0x100000
 80003fc:	3401      	addeq	r4, #1
 80003fe:	3d01      	subne	r5, #1
 8000400:	e74e      	b.n	80002a0 <__adddf3+0x8c>
 8000402:	ea7f 5c64 	mvns.w	ip, r4, asr #21
 8000406:	bf18      	it	ne
 8000408:	ea7f 5c65 	mvnsne.w	ip, r5, asr #21
 800040c:	d029      	beq.n	8000462 <__adddf3+0x24e>
 800040e:	ea94 0f05 	teq	r4, r5
 8000412:	bf08      	it	eq
 8000414:	ea90 0f02 	teqeq	r0, r2
 8000418:	d005      	beq.n	8000426 <__adddf3+0x212>
 800041a:	ea54 0c00 	orrs.w	ip, r4, r0
 800041e:	bf04      	itt	eq
 8000420:	4619      	moveq	r1, r3
 8000422:	4610      	moveq	r0, r2
 8000424:	bd30      	pop	{r4, r5, pc}
 8000426:	ea91 0f03 	teq	r1, r3
 800042a:	bf1e      	ittt	ne
 800042c:	2100      	movne	r1, #0
 800042e:	2000      	movne	r0, #0
 8000430:	bd30      	popne	{r4, r5, pc}
 8000432:	ea5f 5c54 	movs.w	ip, r4, lsr #21
 8000436:	d105      	bne.n	8000444 <__adddf3+0x230>
 8000438:	0040      	lsls	r0, r0, #1
 800043a:	4149      	adcs	r1, r1
 800043c:	bf28      	it	cs
 800043e:	f041 4100 	orrcs.w	r1, r1, #2147483648	@ 0x80000000
 8000442:	bd30      	pop	{r4, r5, pc}
 8000444:	f514 0480 	adds.w	r4, r4, #4194304	@ 0x400000
 8000448:	bf3c      	itt	cc
 800044a:	f501 1180 	addcc.w	r1, r1, #1048576	@ 0x100000
 800044e:	bd30      	popcc	{r4, r5, pc}
 8000450:	f001 4500 	and.w	r5, r1, #2147483648	@ 0x80000000
 8000454:	f045 41fe 	orr.w	r1, r5, #2130706432	@ 0x7f000000
 8000458:	f441 0170 	orr.w	r1, r1, #15728640	@ 0xf00000
 800045c:	f04f 0000 	mov.w	r0, #0
 8000460:	bd30      	pop	{r4, r5, pc}
 8000462:	ea7f 5c64 	mvns.w	ip, r4, asr #21
 8000466:	bf1a      	itte	ne
 8000468:	4619      	movne	r1, r3
 800046a:	4610      	movne	r0, r2
 800046c:	ea7f 5c65 	mvnseq.w	ip, r5, asr #21
 8000470:	bf1c      	itt	ne
 8000472:	460b      	movne	r3, r1
 8000474:	4602      	movne	r2, r0
 8000476:	ea50 3401 	orrs.w	r4, r0, r1, lsl #12
 800047a:	bf06      	itte	eq
 800047c:	ea52 3503 	orrseq.w	r5, r2, r3, lsl #12
 8000480:	ea91 0f03 	teqeq	r1, r3
 8000484:	f441 2100 	orrne.w	r1, r1, #524288	@ 0x80000
 8000488:	bd30      	pop	{r4, r5, pc}
 800048a:	bf00      	nop

0800048c <__aeabi_ui2d>:
 800048c:	f090 0f00 	teq	r0, #0
 8000490:	bf04      	itt	eq
 8000492:	2100      	moveq	r1, #0
 8000494:	4770      	bxeq	lr
 8000496:	b530      	push	{r4, r5, lr}
 8000498:	f44f 6480 	mov.w	r4, #1024	@ 0x400
 800049c:	f104 0432 	add.w	r4, r4, #50	@ 0x32
 80004a0:	f04f 0500 	mov.w	r5, #0
 80004a4:	f04f 0100 	mov.w	r1, #0
 80004a8:	e750      	b.n	800034c <__adddf3+0x138>
 80004aa:	bf00      	nop

080004ac <__aeabi_i2d>:
 80004ac:	f090 0f00 	teq	r0, #0
 80004b0:	bf04      	itt	eq
 80004b2:	2100      	moveq	r1, #0
 80004b4:	4770      	bxeq	lr
 80004b6:	b530      	push	{r4, r5, lr}
 80004b8:	f44f 6480 	mov.w	r4, #1024	@ 0x400
 80004bc:	f104 0432 	add.w	r4, r4, #50	@ 0x32
 80004c0:	f010 4500 	ands.w	r5, r0, #2147483648	@ 0x80000000
 80004c4:	bf48      	it	mi
 80004c6:	4240      	negmi	r0, r0
 80004c8:	f04f 0100 	mov.w	r1, #0
 80004cc:	e73e      	b.n	800034c <__adddf3+0x138>
 80004ce:	bf00      	nop

080004d0 <__aeabi_f2d>:
 80004d0:	0042      	lsls	r2, r0, #1
 80004d2:	ea4f 01e2 	mov.w	r1, r2, asr #3
 80004d6:	ea4f 0131 	mov.w	r1, r1, rrx
 80004da:	ea4f 7002 	mov.w	r0, r2, lsl #28
 80004de:	bf1f      	itttt	ne
 80004e0:	f012 437f 	andsne.w	r3, r2, #4278190080	@ 0xff000000
 80004e4:	f093 4f7f 	teqne	r3, #4278190080	@ 0xff000000
 80004e8:	f081 5160 	eorne.w	r1, r1, #939524096	@ 0x38000000
 80004ec:	4770      	bxne	lr
 80004ee:	f032 427f 	bics.w	r2, r2, #4278190080	@ 0xff000000
 80004f2:	bf08      	it	eq
 80004f4:	4770      	bxeq	lr
 80004f6:	f093 4f7f 	teq	r3, #4278190080	@ 0xff000000
 80004fa:	bf04      	itt	eq
 80004fc:	f441 2100 	orreq.w	r1, r1, #524288	@ 0x80000
 8000500:	4770      	bxeq	lr
 8000502:	b530      	push	{r4, r5, lr}
 8000504:	f44f 7460 	mov.w	r4, #896	@ 0x380
 8000508:	f001 4500 	and.w	r5, r1, #2147483648	@ 0x80000000
 800050c:	f021 4100 	bic.w	r1, r1, #2147483648	@ 0x80000000
 8000510:	e71c      	b.n	800034c <__adddf3+0x138>
 8000512:	bf00      	nop

08000514 <__aeabi_ul2d>:
 8000514:	ea50 0201 	orrs.w	r2, r0, r1
 8000518:	bf08      	it	eq
 800051a:	4770      	bxeq	lr
 800051c:	b530      	push	{r4, r5, lr}
 800051e:	f04f 0500 	mov.w	r5, #0
 8000522:	e00a      	b.n	800053a <__aeabi_l2d+0x16>

08000524 <__aeabi_l2d>:
 8000524:	ea50 0201 	orrs.w	r2, r0, r1
 8000528:	bf08      	it	eq
 800052a:	4770      	bxeq	lr
 800052c:	b530      	push	{r4, r5, lr}
 800052e:	f011 4500 	ands.w	r5, r1, #2147483648	@ 0x80000000
 8000532:	d502      	bpl.n	800053a <__aeabi_l2d+0x16>
 8000534:	4240      	negs	r0, r0
 8000536:	eb61 0141 	sbc.w	r1, r1, r1, lsl #1
 800053a:	f44f 6480 	mov.w	r4, #1024	@ 0x400
 800053e:	f104 0432 	add.w	r4, r4, #50	@ 0x32
 8000542:	ea5f 5c91 	movs.w	ip, r1, lsr #22
 8000546:	f43f aed8 	beq.w	80002fa <__adddf3+0xe6>
 800054a:	f04f 0203 	mov.w	r2, #3
 800054e:	ea5f 0cdc 	movs.w	ip, ip, lsr #3
 8000552:	bf18      	it	ne
 8000554:	3203      	addne	r2, #3
 8000556:	ea5f 0cdc 	movs.w	ip, ip, lsr #3
 800055a:	bf18      	it	ne
 800055c:	3203      	addne	r2, #3
 800055e:	eb02 02dc 	add.w	r2, r2, ip, lsr #3
 8000562:	f1c2 0320 	rsb	r3, r2, #32
 8000566:	fa00 fc03 	lsl.w	ip, r0, r3
 800056a:	fa20 f002 	lsr.w	r0, r0, r2
 800056e:	fa01 fe03 	lsl.w	lr, r1, r3
 8000572:	ea40 000e 	orr.w	r0, r0, lr
 8000576:	fa21 f102 	lsr.w	r1, r1, r2
 800057a:	4414      	add	r4, r2
 800057c:	e6bd      	b.n	80002fa <__adddf3+0xe6>
 800057e:	bf00      	nop

08000580 <__aeabi_dmul>:
 8000580:	b570      	push	{r4, r5, r6, lr}
 8000582:	f04f 0cff 	mov.w	ip, #255	@ 0xff
 8000586:	f44c 6ce0 	orr.w	ip, ip, #1792	@ 0x700
 800058a:	ea1c 5411 	ands.w	r4, ip, r1, lsr #20
 800058e:	bf1d      	ittte	ne
 8000590:	ea1c 5513 	andsne.w	r5, ip, r3, lsr #20
 8000594:	ea94 0f0c 	teqne	r4, ip
 8000598:	ea95 0f0c 	teqne	r5, ip
 800059c:	f000 f8de 	bleq	800075c <__aeabi_dmul+0x1dc>
 80005a0:	442c      	add	r4, r5
 80005a2:	ea81 0603 	eor.w	r6, r1, r3
 80005a6:	ea21 514c 	bic.w	r1, r1, ip, lsl #21
 80005aa:	ea23 534c 	bic.w	r3, r3, ip, lsl #21
 80005ae:	ea50 3501 	orrs.w	r5, r0, r1, lsl #12
 80005b2:	bf18      	it	ne
 80005b4:	ea52 3503 	orrsne.w	r5, r2, r3, lsl #12
 80005b8:	f441 1180 	orr.w	r1, r1, #1048576	@ 0x100000
 80005bc:	f443 1380 	orr.w	r3, r3, #1048576	@ 0x100000
 80005c0:	d038      	beq.n	8000634 <__aeabi_dmul+0xb4>
 80005c2:	fba0 ce02 	umull	ip, lr, r0, r2
 80005c6:	f04f 0500 	mov.w	r5, #0
 80005ca:	fbe1 e502 	umlal	lr, r5, r1, r2
 80005ce:	f006 4200 	and.w	r2, r6, #2147483648	@ 0x80000000
 80005d2:	fbe0 e503 	umlal	lr, r5, r0, r3
 80005d6:	f04f 0600 	mov.w	r6, #0
 80005da:	fbe1 5603 	umlal	r5, r6, r1, r3
 80005de:	f09c 0f00 	teq	ip, #0
 80005e2:	bf18      	it	ne
 80005e4:	f04e 0e01 	orrne.w	lr, lr, #1
 80005e8:	f1a4 04ff 	sub.w	r4, r4, #255	@ 0xff
 80005ec:	f5b6 7f00 	cmp.w	r6, #512	@ 0x200
 80005f0:	f564 7440 	sbc.w	r4, r4, #768	@ 0x300
 80005f4:	d204      	bcs.n	8000600 <__aeabi_dmul+0x80>
 80005f6:	ea5f 0e4e 	movs.w	lr, lr, lsl #1
 80005fa:	416d      	adcs	r5, r5
 80005fc:	eb46 0606 	adc.w	r6, r6, r6
 8000600:	ea42 21c6 	orr.w	r1, r2, r6, lsl #11
 8000604:	ea41 5155 	orr.w	r1, r1, r5, lsr #21
 8000608:	ea4f 20c5 	mov.w	r0, r5, lsl #11
 800060c:	ea40 505e 	orr.w	r0, r0, lr, lsr #21
 8000610:	ea4f 2ece 	mov.w	lr, lr, lsl #11
 8000614:	f1b4 0cfd 	subs.w	ip, r4, #253	@ 0xfd
 8000618:	bf88      	it	hi
 800061a:	f5bc 6fe0 	cmphi.w	ip, #1792	@ 0x700
 800061e:	d81e      	bhi.n	800065e <__aeabi_dmul+0xde>
 8000620:	f1be 4f00 	cmp.w	lr, #2147483648	@ 0x80000000
 8000624:	bf08      	it	eq
 8000626:	ea5f 0e50 	movseq.w	lr, r0, lsr #1
 800062a:	f150 0000 	adcs.w	r0, r0, #0
 800062e:	eb41 5104 	adc.w	r1, r1, r4, lsl #20
 8000632:	bd70      	pop	{r4, r5, r6, pc}
 8000634:	f006 4600 	and.w	r6, r6, #2147483648	@ 0x80000000
 8000638:	ea46 0101 	orr.w	r1, r6, r1
 800063c:	ea40 0002 	orr.w	r0, r0, r2
 8000640:	ea81 0103 	eor.w	r1, r1, r3
 8000644:	ebb4 045c 	subs.w	r4, r4, ip, lsr #1
 8000648:	bfc2      	ittt	gt
 800064a:	ebd4 050c 	rsbsgt	r5, r4, ip
 800064e:	ea41 5104 	orrgt.w	r1, r1, r4, lsl #20
 8000652:	bd70      	popgt	{r4, r5, r6, pc}
 8000654:	f441 1180 	orr.w	r1, r1, #1048576	@ 0x100000
 8000658:	f04f 0e00 	mov.w	lr, #0
 800065c:	3c01      	subs	r4, #1
 800065e:	f300 80ab 	bgt.w	80007b8 <__aeabi_dmul+0x238>
 8000662:	f114 0f36 	cmn.w	r4, #54	@ 0x36
 8000666:	bfde      	ittt	le
 8000668:	2000      	movle	r0, #0
 800066a:	f001 4100 	andle.w	r1, r1, #2147483648	@ 0x80000000
 800066e:	bd70      	pople	{r4, r5, r6, pc}
 8000670:	f1c4 0400 	rsb	r4, r4, #0
 8000674:	3c20      	subs	r4, #32
 8000676:	da35      	bge.n	80006e4 <__aeabi_dmul+0x164>
 8000678:	340c      	adds	r4, #12
 800067a:	dc1b      	bgt.n	80006b4 <__aeabi_dmul+0x134>
 800067c:	f104 0414 	add.w	r4, r4, #20
 8000680:	f1c4 0520 	rsb	r5, r4, #32
 8000684:	fa00 f305 	lsl.w	r3, r0, r5
 8000688:	fa20 f004 	lsr.w	r0, r0, r4
 800068c:	fa01 f205 	lsl.w	r2, r1, r5
 8000690:	ea40 0002 	orr.w	r0, r0, r2
 8000694:	f001 4200 	and.w	r2, r1, #2147483648	@ 0x80000000
 8000698:	f021 4100 	bic.w	r1, r1, #2147483648	@ 0x80000000
 800069c:	eb10 70d3 	adds.w	r0, r0, r3, lsr #31
 80006a0:	fa21 f604 	lsr.w	r6, r1, r4
 80006a4:	eb42 0106 	adc.w	r1, r2, r6
 80006a8:	ea5e 0e43 	orrs.w	lr, lr, r3, lsl #1
 80006ac:	bf08      	it	eq
 80006ae:	ea20 70d3 	biceq.w	r0, r0, r3, lsr #31
 80006b2:	bd70      	pop	{r4, r5, r6, pc}
 80006b4:	f1c4 040c 	rsb	r4, r4, #12
 80006b8:	f1c4 0520 	rsb	r5, r4, #32
 80006bc:	fa00 f304 	lsl.w	r3, r0, r4
 80006c0:	fa20 f005 	lsr.w	r0, r0, r5
 80006c4:	fa01 f204 	lsl.w	r2, r1, r4
 80006c8:	ea40 0002 	orr.w	r0, r0, r2
 80006cc:	f001 4100 	and.w	r1, r1, #2147483648	@ 0x80000000
 80006d0:	eb10 70d3 	adds.w	r0, r0, r3, lsr #31
 80006d4:	f141 0100 	adc.w	r1, r1, #0
 80006d8:	ea5e 0e43 	orrs.w	lr, lr, r3, lsl #1
 80006dc:	bf08      	it	eq
 80006de:	ea20 70d3 	biceq.w	r0, r0, r3, lsr #31
 80006e2:	bd70      	pop	{r4, r5, r6, pc}
 80006e4:	f1c4 0520 	rsb	r5, r4, #32
 80006e8:	fa00 f205 	lsl.w	r2, r0, r5
 80006ec:	ea4e 0e02 	orr.w	lr, lr, r2
 80006f0:	fa20 f304 	lsr.w	r3, r0, r4
 80006f4:	fa01 f205 	lsl.w	r2, r1, r5
 80006f8:	ea43 0302 	orr.w	r3, r3, r2
 80006fc:	fa21 f004 	lsr.w	r0, r1, r4
 8000700:	f001 4100 	and.w	r1, r1, #2147483648	@ 0x80000000
 8000704:	fa21 f204 	lsr.w	r2, r1, r4
 8000708:	ea20 0002 	bic.w	r0, r0, r2
 800070c:	eb00 70d3 	add.w	r0, r0, r3, lsr #31
 8000710:	ea5e 0e43 	orrs.w	lr, lr, r3, lsl #1
 8000714:	bf08      	it	eq
 8000716:	ea20 70d3 	biceq.w	r0, r0, r3, lsr #31
 800071a:	bd70      	pop	{r4, r5, r6, pc}
 800071c:	f094 0f00 	teq	r4, #0
 8000720:	d10f      	bne.n	8000742 <__aeabi_dmul+0x1c2>
 8000722:	f001 4600 	and.w	r6, r1, #2147483648	@ 0x80000000
 8000726:	0040      	lsls	r0, r0, #1
 8000728:	eb41 0101 	adc.w	r1, r1, r1
 800072c:	f411 1f80 	tst.w	r1, #1048576	@ 0x100000
 8000730:	bf08      	it	eq
 8000732:	3c01      	subeq	r4, #1
 8000734:	d0f7      	beq.n	8000726 <__aeabi_dmul+0x1a6>
 8000736:	ea41 0106 	orr.w	r1, r1, r6
 800073a:	f095 0f00 	teq	r5, #0
 800073e:	bf18      	it	ne
 8000740:	4770      	bxne	lr
 8000742:	f003 4600 	and.w	r6, r3, #2147483648	@ 0x80000000
 8000746:	0052      	lsls	r2, r2, #1
 8000748:	eb43 0303 	adc.w	r3, r3, r3
 800074c:	f413 1f80 	tst.w	r3, #1048576	@ 0x100000
 8000750:	bf08      	it	eq
 8000752:	3d01      	subeq	r5, #1
 8000754:	d0f7      	beq.n	8000746 <__aeabi_dmul+0x1c6>
 8000756:	ea43 0306 	orr.w	r3, r3, r6
 800075a:	4770      	bx	lr
 800075c:	ea94 0f0c 	teq	r4, ip
 8000760:	ea0c 5513 	and.w	r5, ip, r3, lsr #20
 8000764:	bf18      	it	ne
 8000766:	ea95 0f0c 	teqne	r5, ip
 800076a:	d00c      	beq.n	8000786 <__aeabi_dmul+0x206>
 800076c:	ea50 0641 	orrs.w	r6, r0, r1, lsl #1
 8000770:	bf18      	it	ne
 8000772:	ea52 0643 	orrsne.w	r6, r2, r3, lsl #1
 8000776:	d1d1      	bne.n	800071c <__aeabi_dmul+0x19c>
 8000778:	ea81 0103 	eor.w	r1, r1, r3
 800077c:	f001 4100 	and.w	r1, r1, #2147483648	@ 0x80000000
 8000780:	f04f 0000 	mov.w	r0, #0
 8000784:	bd70      	pop	{r4, r5, r6, pc}
 8000786:	ea50 0641 	orrs.w	r6, r0, r1, lsl #1
 800078a:	bf06      	itte	eq
 800078c:	4610      	moveq	r0, r2
 800078e:	4619      	moveq	r1, r3
 8000790:	ea52 0643 	orrsne.w	r6, r2, r3, lsl #1
 8000794:	d019      	beq.n	80007ca <__aeabi_dmul+0x24a>
 8000796:	ea94 0f0c 	teq	r4, ip
 800079a:	d102      	bne.n	80007a2 <__aeabi_dmul+0x222>
 800079c:	ea50 3601 	orrs.w	r6, r0, r1, lsl #12
 80007a0:	d113      	bne.n	80007ca <__aeabi_dmul+0x24a>
 80007a2:	ea95 0f0c 	teq	r5, ip
 80007a6:	d105      	bne.n	80007b4 <__aeabi_dmul+0x234>
 80007a8:	ea52 3603 	orrs.w	r6, r2, r3, lsl #12
 80007ac:	bf1c      	itt	ne
 80007ae:	4610      	movne	r0, r2
 80007b0:	4619      	movne	r1, r3
 80007b2:	d10a      	bne.n	80007ca <__aeabi_dmul+0x24a>
 80007b4:	ea81 0103 	eor.w	r1, r1, r3
 80007b8:	f001 4100 	and.w	r1, r1, #2147483648	@ 0x80000000
 80007bc:	f041 41fe 	orr.w	r1, r1, #2130706432	@ 0x7f000000
 80007c0:	f441 0170 	orr.w	r1, r1, #15728640	@ 0xf00000
 80007c4:	f04f 0000 	mov.w	r0, #0
 80007c8:	bd70      	pop	{r4, r5, r6, pc}
 80007ca:	f041 41fe 	orr.w	r1, r1, #2130706432	@ 0x7f000000
 80007ce:	f441 0178 	orr.w	r1, r1, #16252928	@ 0xf80000
 80007d2:	bd70      	pop	{r4, r5, r6, pc}

080007d4 <__aeabi_ddiv>:
 80007d4:	b570      	push	{r4, r5, r6, lr}
 80007d6:	f04f 0cff 	mov.w	ip, #255	@ 0xff
 80007da:	f44c 6ce0 	orr.w	ip, ip, #1792	@ 0x700
 80007de:	ea1c 5411 	ands.w	r4, ip, r1, lsr #20
 80007e2:	bf1d      	ittte	ne
 80007e4:	ea1c 5513 	andsne.w	r5, ip, r3, lsr #20
 80007e8:	ea94 0f0c 	teqne	r4, ip
 80007ec:	ea95 0f0c 	teqne	r5, ip
 80007f0:	f000 f8a7 	bleq	8000942 <__aeabi_ddiv+0x16e>
 80007f4:	eba4 0405 	sub.w	r4, r4, r5
 80007f8:	ea81 0e03 	eor.w	lr, r1, r3
 80007fc:	ea52 3503 	orrs.w	r5, r2, r3, lsl #12
 8000800:	ea4f 3101 	mov.w	r1, r1, lsl #12
 8000804:	f000 8088 	beq.w	8000918 <__aeabi_ddiv+0x144>
 8000808:	ea4f 3303 	mov.w	r3, r3, lsl #12
 800080c:	f04f 5580 	mov.w	r5, #268435456	@ 0x10000000
 8000810:	ea45 1313 	orr.w	r3, r5, r3, lsr #4
 8000814:	ea43 6312 	orr.w	r3, r3, r2, lsr #24
 8000818:	ea4f 2202 	mov.w	r2, r2, lsl #8
 800081c:	ea45 1511 	orr.w	r5, r5, r1, lsr #4
 8000820:	ea45 6510 	orr.w	r5, r5, r0, lsr #24
 8000824:	ea4f 2600 	mov.w	r6, r0, lsl #8
 8000828:	f00e 4100 	and.w	r1, lr, #2147483648	@ 0x80000000
 800082c:	429d      	cmp	r5, r3
 800082e:	bf08      	it	eq
 8000830:	4296      	cmpeq	r6, r2
 8000832:	f144 04fd 	adc.w	r4, r4, #253	@ 0xfd
 8000836:	f504 7440 	add.w	r4, r4, #768	@ 0x300
 800083a:	d202      	bcs.n	8000842 <__aeabi_ddiv+0x6e>
 800083c:	085b      	lsrs	r3, r3, #1
 800083e:	ea4f 0232 	mov.w	r2, r2, rrx
 8000842:	1ab6      	subs	r6, r6, r2
 8000844:	eb65 0503 	sbc.w	r5, r5, r3
 8000848:	085b      	lsrs	r3, r3, #1
 800084a:	ea4f 0232 	mov.w	r2, r2, rrx
 800084e:	f44f 1080 	mov.w	r0, #1048576	@ 0x100000
 8000852:	f44f 2c00 	mov.w	ip, #524288	@ 0x80000
 8000856:	ebb6 0e02 	subs.w	lr, r6, r2
 800085a:	eb75 0e03 	sbcs.w	lr, r5, r3
 800085e:	bf22      	ittt	cs
 8000860:	1ab6      	subcs	r6, r6, r2
 8000862:	4675      	movcs	r5, lr
 8000864:	ea40 000c 	orrcs.w	r0, r0, ip
 8000868:	085b      	lsrs	r3, r3, #1
 800086a:	ea4f 0232 	mov.w	r2, r2, rrx
 800086e:	ebb6 0e02 	subs.w	lr, r6, r2
 8000872:	eb75 0e03 	sbcs.w	lr, r5, r3
 8000876:	bf22      	ittt	cs
 8000878:	1ab6      	subcs	r6, r6, r2
 800087a:	4675      	movcs	r5, lr
 800087c:	ea40 005c 	orrcs.w	r0, r0, ip, lsr #1
 8000880:	085b      	lsrs	r3, r3, #1
 8000882:	ea4f 0232 	mov.w	r2, r2, rrx
 8000886:	ebb6 0e02 	subs.w	lr, r6, r2
 800088a:	eb75 0e03 	sbcs.w	lr, r5, r3
 800088e:	bf22      	ittt	cs
 8000890:	1ab6      	subcs	r6, r6, r2
 8000892:	4675      	movcs	r5, lr
 8000894:	ea40 009c 	orrcs.w	r0, r0, ip, lsr #2
 8000898:	085b      	lsrs	r3, r3, #1
 800089a:	ea4f 0232 	mov.w	r2, r2, rrx
 800089e:	ebb6 0e02 	subs.w	lr, r6, r2
 80008a2:	eb75 0e03 	sbcs.w	lr, r5, r3
 80008a6:	bf22      	ittt	cs
 80008a8:	1ab6      	subcs	r6, r6, r2
 80008aa:	4675      	movcs	r5, lr
 80008ac:	ea40 00dc 	orrcs.w	r0, r0, ip, lsr #3
 80008b0:	ea55 0e06 	orrs.w	lr, r5, r6
 80008b4:	d018      	beq.n	80008e8 <__aeabi_ddiv+0x114>
 80008b6:	ea4f 1505 	mov.w	r5, r5, lsl #4
 80008ba:	ea45 7516 	orr.w	r5, r5, r6, lsr #28
 80008be:	ea4f 1606 	mov.w	r6, r6, lsl #4
 80008c2:	ea4f 03c3 	mov.w	r3, r3, lsl #3
 80008c6:	ea43 7352 	orr.w	r3, r3, r2, lsr #29
 80008ca:	ea4f 02c2 	mov.w	r2, r2, lsl #3
 80008ce:	ea5f 1c1c 	movs.w	ip, ip, lsr #4
 80008d2:	d1c0      	bne.n	8000856 <__aeabi_ddiv+0x82>
 80008d4:	f411 1f80 	tst.w	r1, #1048576	@ 0x100000
 80008d8:	d10b      	bne.n	80008f2 <__aeabi_ddiv+0x11e>
 80008da:	ea41 0100 	orr.w	r1, r1, r0
 80008de:	f04f 0000 	mov.w	r0, #0
 80008e2:	f04f 4c00 	mov.w	ip, #2147483648	@ 0x80000000
 80008e6:	e7b6      	b.n	8000856 <__aeabi_ddiv+0x82>
 80008e8:	f411 1f80 	tst.w	r1, #1048576	@ 0x100000
 80008ec:	bf04      	itt	eq
 80008ee:	4301      	orreq	r1, r0
 80008f0:	2000      	moveq	r0, #0
 80008f2:	f1b4 0cfd 	subs.w	ip, r4, #253	@ 0xfd
 80008f6:	bf88      	it	hi
 80008f8:	f5bc 6fe0 	cmphi.w	ip, #1792	@ 0x700
 80008fc:	f63f aeaf 	bhi.w	800065e <__aeabi_dmul+0xde>
 8000900:	ebb5 0c03 	subs.w	ip, r5, r3
 8000904:	bf04      	itt	eq
 8000906:	ebb6 0c02 	subseq.w	ip, r6, r2
 800090a:	ea5f 0c50 	movseq.w	ip, r0, lsr #1
 800090e:	f150 0000 	adcs.w	r0, r0, #0
 8000912:	eb41 5104 	adc.w	r1, r1, r4, lsl #20
 8000916:	bd70      	pop	{r4, r5, r6, pc}
 8000918:	f00e 4e00 	and.w	lr, lr, #2147483648	@ 0x80000000
 800091c:	ea4e 3111 	orr.w	r1, lr, r1, lsr #12
 8000920:	eb14 045c 	adds.w	r4, r4, ip, lsr #1
 8000924:	bfc2      	ittt	gt
 8000926:	ebd4 050c 	rsbsgt	r5, r4, ip
 800092a:	ea41 5104 	orrgt.w	r1, r1, r4, lsl #20
 800092e:	bd70      	popgt	{r4, r5, r6, pc}
 8000930:	f441 1180 	orr.w	r1, r1, #1048576	@ 0x100000
 8000934:	f04f 0e00 	mov.w	lr, #0
 8000938:	3c01      	subs	r4, #1
 800093a:	e690      	b.n	800065e <__aeabi_dmul+0xde>
 800093c:	ea45 0e06 	orr.w	lr, r5, r6
 8000940:	e68d      	b.n	800065e <__aeabi_dmul+0xde>
 8000942:	ea0c 5513 	and.w	r5, ip, r3, lsr #20
 8000946:	ea94 0f0c 	teq	r4, ip
 800094a:	bf08      	it	eq
 800094c:	ea95 0f0c 	teqeq	r5, ip
 8000950:	f43f af3b 	beq.w	80007ca <__aeabi_dmul+0x24a>
 8000954:	ea94 0f0c 	teq	r4, ip
 8000958:	d10a      	bne.n	8000970 <__aeabi_ddiv+0x19c>
 800095a:	ea50 3401 	orrs.w	r4, r0, r1, lsl #12
 800095e:	f47f af34 	bne.w	80007ca <__aeabi_dmul+0x24a>
 8000962:	ea95 0f0c 	teq	r5, ip
 8000966:	f47f af25 	bne.w	80007b4 <__aeabi_dmul+0x234>
 800096a:	4610      	mov	r0, r2
 800096c:	4619      	mov	r1, r3
 800096e:	e72c      	b.n	80007ca <__aeabi_dmul+0x24a>
 8000970:	ea95 0f0c 	teq	r5, ip
 8000974:	d106      	bne.n	8000984 <__aeabi_ddiv+0x1b0>
 8000976:	ea52 3503 	orrs.w	r5, r2, r3, lsl #12
 800097a:	f43f aefd 	beq.w	8000778 <__aeabi_dmul+0x1f8>
 800097e:	4610      	mov	r0, r2
 8000980:	4619      	mov	r1, r3
 8000982:	e722      	b.n	80007ca <__aeabi_dmul+0x24a>
 8000984:	ea50 0641 	orrs.w	r6, r0, r1, lsl #1
 8000988:	bf18      	it	ne
 800098a:	ea52 0643 	orrsne.w	r6, r2, r3, lsl #1
 800098e:	f47f aec5 	bne.w	800071c <__aeabi_dmul+0x19c>
 8000992:	ea50 0441 	orrs.w	r4, r0, r1, lsl #1
 8000996:	f47f af0d 	bne.w	80007b4 <__aeabi_dmul+0x234>
 800099a:	ea52 0543 	orrs.w	r5, r2, r3, lsl #1
 800099e:	f47f aeeb 	bne.w	8000778 <__aeabi_dmul+0x1f8>
 80009a2:	e712      	b.n	80007ca <__aeabi_dmul+0x24a>

080009a4 <__aeabi_d2uiz>:
 80009a4:	004a      	lsls	r2, r1, #1
 80009a6:	d211      	bcs.n	80009cc <__aeabi_d2uiz+0x28>
 80009a8:	f512 1200 	adds.w	r2, r2, #2097152	@ 0x200000
 80009ac:	d211      	bcs.n	80009d2 <__aeabi_d2uiz+0x2e>
 80009ae:	d50d      	bpl.n	80009cc <__aeabi_d2uiz+0x28>
 80009b0:	f46f 7378 	mvn.w	r3, #992	@ 0x3e0
 80009b4:	ebb3 5262 	subs.w	r2, r3, r2, asr #21
 80009b8:	d40e      	bmi.n	80009d8 <__aeabi_d2uiz+0x34>
 80009ba:	ea4f 23c1 	mov.w	r3, r1, lsl #11
 80009be:	f043 4300 	orr.w	r3, r3, #2147483648	@ 0x80000000
 80009c2:	ea43 5350 	orr.w	r3, r3, r0, lsr #21
 80009c6:	fa23 f002 	lsr.w	r0, r3, r2
 80009ca:	4770      	bx	lr
 80009cc:	f04f 0000 	mov.w	r0, #0
 80009d0:	4770      	bx	lr
 80009d2:	ea50 3001 	orrs.w	r0, r0, r1, lsl #12
 80009d6:	d102      	bne.n	80009de <__aeabi_d2uiz+0x3a>
 80009d8:	f04f 30ff 	mov.w	r0, #4294967295	@ 0xffffffff
 80009dc:	4770      	bx	lr
 80009de:	f04f 0000 	mov.w	r0, #0
 80009e2:	4770      	bx	lr

080009e4 <__aeabi_frsub>:
 80009e4:	f080 4000 	eor.w	r0, r0, #2147483648	@ 0x80000000
 80009e8:	e002      	b.n	80009f0 <__addsf3>
 80009ea:	bf00      	nop

080009ec <__aeabi_fsub>:
 80009ec:	f081 4100 	eor.w	r1, r1, #2147483648	@ 0x80000000

080009f0 <__addsf3>:
 80009f0:	0042      	lsls	r2, r0, #1
 80009f2:	bf1f      	itttt	ne
 80009f4:	ea5f 0341 	movsne.w	r3, r1, lsl #1
 80009f8:	ea92 0f03 	teqne	r2, r3
 80009fc:	ea7f 6c22 	mvnsne.w	ip, r2, asr #24
 8000a00:	ea7f 6c23 	mvnsne.w	ip, r3, asr #24
 8000a04:	d06a      	beq.n	8000adc <__addsf3+0xec>
 8000a06:	ea4f 6212 	mov.w	r2, r2, lsr #24
 8000a0a:	ebd2 6313 	rsbs	r3, r2, r3, lsr #24
 8000a0e:	bfc1      	itttt	gt
 8000a10:	18d2      	addgt	r2, r2, r3
 8000a12:	4041      	eorgt	r1, r0
 8000a14:	4048      	eorgt	r0, r1
 8000a16:	4041      	eorgt	r1, r0
 8000a18:	bfb8      	it	lt
 8000a1a:	425b      	neglt	r3, r3
 8000a1c:	2b19      	cmp	r3, #25
 8000a1e:	bf88      	it	hi
 8000a20:	4770      	bxhi	lr
 8000a22:	f010 4f00 	tst.w	r0, #2147483648	@ 0x80000000
 8000a26:	f440 0000 	orr.w	r0, r0, #8388608	@ 0x800000
 8000a2a:	f020 407f 	bic.w	r0, r0, #4278190080	@ 0xff000000
 8000a2e:	bf18      	it	ne
 8000a30:	4240      	negne	r0, r0
 8000a32:	f011 4f00 	tst.w	r1, #2147483648	@ 0x80000000
 8000a36:	f441 0100 	orr.w	r1, r1, #8388608	@ 0x800000
 8000a3a:	f021 417f 	bic.w	r1, r1, #4278190080	@ 0xff000000
 8000a3e:	bf18      	it	ne
 8000a40:	4249      	negne	r1, r1
 8000a42:	ea92 0f03 	teq	r2, r3
 8000a46:	d03f      	beq.n	8000ac8 <__addsf3+0xd8>
 8000a48:	f1a2 0201 	sub.w	r2, r2, #1
 8000a4c:	fa41 fc03 	asr.w	ip, r1, r3
 8000a50:	eb10 000c 	adds.w	r0, r0, ip
 8000a54:	f1c3 0320 	rsb	r3, r3, #32
 8000a58:	fa01 f103 	lsl.w	r1, r1, r3
 8000a5c:	f000 4300 	and.w	r3, r0, #2147483648	@ 0x80000000
 8000a60:	d502      	bpl.n	8000a68 <__addsf3+0x78>
 8000a62:	4249      	negs	r1, r1
 8000a64:	eb60 0040 	sbc.w	r0, r0, r0, lsl #1
 8000a68:	f5b0 0f00 	cmp.w	r0, #8388608	@ 0x800000
 8000a6c:	d313      	bcc.n	8000a96 <__addsf3+0xa6>
 8000a6e:	f1b0 7f80 	cmp.w	r0, #16777216	@ 0x1000000
 8000a72:	d306      	bcc.n	8000a82 <__addsf3+0x92>
 8000a74:	0840      	lsrs	r0, r0, #1
 8000a76:	ea4f 0131 	mov.w	r1, r1, rrx
 8000a7a:	f102 0201 	add.w	r2, r2, #1
 8000a7e:	2afe      	cmp	r2, #254	@ 0xfe
 8000a80:	d251      	bcs.n	8000b26 <__addsf3+0x136>
 8000a82:	f1b1 4f00 	cmp.w	r1, #2147483648	@ 0x80000000
 8000a86:	eb40 50c2 	adc.w	r0, r0, r2, lsl #23
 8000a8a:	bf08      	it	eq
 8000a8c:	f020 0001 	biceq.w	r0, r0, #1
 8000a90:	ea40 0003 	orr.w	r0, r0, r3
 8000a94:	4770      	bx	lr
 8000a96:	0049      	lsls	r1, r1, #1
 8000a98:	eb40 0000 	adc.w	r0, r0, r0
 8000a9c:	3a01      	subs	r2, #1
 8000a9e:	bf28      	it	cs
 8000aa0:	f5b0 0f00 	cmpcs.w	r0, #8388608	@ 0x800000
 8000aa4:	d2ed      	bcs.n	8000a82 <__addsf3+0x92>
 8000aa6:	fab0 fc80 	clz	ip, r0
 8000aaa:	f1ac 0c08 	sub.w	ip, ip, #8
 8000aae:	ebb2 020c 	subs.w	r2, r2, ip
 8000ab2:	fa00 f00c 	lsl.w	r0, r0, ip
 8000ab6:	bfaa      	itet	ge
 8000ab8:	eb00 50c2 	addge.w	r0, r0, r2, lsl #23
 8000abc:	4252      	neglt	r2, r2
 8000abe:	4318      	orrge	r0, r3
 8000ac0:	bfbc      	itt	lt
 8000ac2:	40d0      	lsrlt	r0, r2
 8000ac4:	4318      	orrlt	r0, r3
 8000ac6:	4770      	bx	lr
 8000ac8:	f092 0f00 	teq	r2, #0
 8000acc:	f481 0100 	eor.w	r1, r1, #8388608	@ 0x800000
 8000ad0:	bf06      	itte	eq
 8000ad2:	f480 0000 	eoreq.w	r0, r0, #8388608	@ 0x800000
 8000ad6:	3201      	addeq	r2, #1
 8000ad8:	3b01      	subne	r3, #1
 8000ada:	e7b5      	b.n	8000a48 <__addsf3+0x58>
 8000adc:	ea4f 0341 	mov.w	r3, r1, lsl #1
 8000ae0:	ea7f 6c22 	mvns.w	ip, r2, asr #24
 8000ae4:	bf18      	it	ne
 8000ae6:	ea7f 6c23 	mvnsne.w	ip, r3, asr #24
 8000aea:	d021      	beq.n	8000b30 <__addsf3+0x140>
 8000aec:	ea92 0f03 	teq	r2, r3
 8000af0:	d004      	beq.n	8000afc <__addsf3+0x10c>
 8000af2:	f092 0f00 	teq	r2, #0
 8000af6:	bf08      	it	eq
 8000af8:	4608      	moveq	r0, r1
 8000afa:	4770      	bx	lr
 8000afc:	ea90 0f01 	teq	r0, r1
 8000b00:	bf1c      	itt	ne
 8000b02:	2000      	movne	r0, #0
 8000b04:	4770      	bxne	lr
 8000b06:	f012 4f7f 	tst.w	r2, #4278190080	@ 0xff000000
 8000b0a:	d104      	bne.n	8000b16 <__addsf3+0x126>
 8000b0c:	0040      	lsls	r0, r0, #1
 8000b0e:	bf28      	it	cs
 8000b10:	f040 4000 	orrcs.w	r0, r0, #2147483648	@ 0x80000000
 8000b14:	4770      	bx	lr
 8000b16:	f112 7200 	adds.w	r2, r2, #33554432	@ 0x2000000
 8000b1a:	bf3c      	itt	cc
 8000b1c:	f500 0000 	addcc.w	r0, r0, #8388608	@ 0x800000
 8000b20:	4770      	bxcc	lr
 8000b22:	f000 4300 	and.w	r3, r0, #2147483648	@ 0x80000000
 8000b26:	f043 40fe 	orr.w	r0, r3, #2130706432	@ 0x7f000000
 8000b2a:	f440 0000 	orr.w	r0, r0, #8388608	@ 0x800000
 8000b2e:	4770      	bx	lr
 8000b30:	ea7f 6222 	mvns.w	r2, r2, asr #24
 8000b34:	bf16      	itet	ne
 8000b36:	4608      	movne	r0, r1
 8000b38:	ea7f 6323 	mvnseq.w	r3, r3, asr #24
 8000b3c:	4601      	movne	r1, r0
 8000b3e:	0242      	lsls	r2, r0, #9
 8000b40:	bf06      	itte	eq
 8000b42:	ea5f 2341 	movseq.w	r3, r1, lsl #9
 8000b46:	ea90 0f01 	teqeq	r0, r1
 8000b4a:	f440 0080 	orrne.w	r0, r0, #4194304	@ 0x400000
 8000b4e:	4770      	bx	lr

08000b50 <__aeabi_ui2f>:
 8000b50:	f04f 0300 	mov.w	r3, #0
 8000b54:	e004      	b.n	8000b60 <__aeabi_i2f+0x8>
 8000b56:	bf00      	nop

08000b58 <__aeabi_i2f>:
 8000b58:	f010 4300 	ands.w	r3, r0, #2147483648	@ 0x80000000
 8000b5c:	bf48      	it	mi
 8000b5e:	4240      	negmi	r0, r0
 8000b60:	ea5f 0c00 	movs.w	ip, r0
 8000b64:	bf08      	it	eq
 8000b66:	4770      	bxeq	lr
 8000b68:	f043 4396 	orr.w	r3, r3, #1258291200	@ 0x4b000000
 8000b6c:	4601      	mov	r1, r0
 8000b6e:	f04f 0000 	mov.w	r0, #0
 8000b72:	e01c      	b.n	8000bae <__aeabi_l2f+0x2a>

08000b74 <__aeabi_ul2f>:
 8000b74:	ea50 0201 	orrs.w	r2, r0, r1
 8000b78:	bf08      	it	eq
 8000b7a:	4770      	bxeq	lr
 8000b7c:	f04f 0300 	mov.w	r3, #0
 8000b80:	e00a      	b.n	8000b98 <__aeabi_l2f+0x14>
 8000b82:	bf00      	nop

08000b84 <__aeabi_l2f>:
 8000b84:	ea50 0201 	orrs.w	r2, r0, r1
 8000b88:	bf08      	it	eq
 8000b8a:	4770      	bxeq	lr
 8000b8c:	f011 4300 	ands.w	r3, r1, #2147483648	@ 0x80000000
 8000b90:	d502      	bpl.n	8000b98 <__aeabi_l2f+0x14>
 8000b92:	4240      	negs	r0, r0
 8000b94:	eb61 0141 	sbc.w	r1, r1, r1, lsl #1
 8000b98:	ea5f 0c01 	movs.w	ip, r1
 8000b9c:	bf02      	ittt	eq
 8000b9e:	4684      	moveq	ip, r0
 8000ba0:	4601      	moveq	r1, r0
 8000ba2:	2000      	moveq	r0, #0
 8000ba4:	f043 43b6 	orr.w	r3, r3, #1526726656	@ 0x5b000000
 8000ba8:	bf08      	it	eq
 8000baa:	f1a3 5380 	subeq.w	r3, r3, #268435456	@ 0x10000000
 8000bae:	f5a3 0300 	sub.w	r3, r3, #8388608	@ 0x800000
 8000bb2:	fabc f28c 	clz	r2, ip
 8000bb6:	3a08      	subs	r2, #8
 8000bb8:	eba3 53c2 	sub.w	r3, r3, r2, lsl #23
 8000bbc:	db10      	blt.n	8000be0 <__aeabi_l2f+0x5c>
 8000bbe:	fa01 fc02 	lsl.w	ip, r1, r2
 8000bc2:	4463      	add	r3, ip
 8000bc4:	fa00 fc02 	lsl.w	ip, r0, r2
 8000bc8:	f1c2 0220 	rsb	r2, r2, #32
 8000bcc:	f1bc 4f00 	cmp.w	ip, #2147483648	@ 0x80000000
 8000bd0:	fa20 f202 	lsr.w	r2, r0, r2
 8000bd4:	eb43 0002 	adc.w	r0, r3, r2
 8000bd8:	bf08      	it	eq
 8000bda:	f020 0001 	biceq.w	r0, r0, #1
 8000bde:	4770      	bx	lr
 8000be0:	f102 0220 	add.w	r2, r2, #32
 8000be4:	fa01 fc02 	lsl.w	ip, r1, r2
 8000be8:	f1c2 0220 	rsb	r2, r2, #32
 8000bec:	ea50 004c 	orrs.w	r0, r0, ip, lsl #1
 8000bf0:	fa21 f202 	lsr.w	r2, r1, r2
 8000bf4:	eb43 0002 	adc.w	r0, r3, r2
 8000bf8:	bf08      	it	eq
 8000bfa:	ea20 70dc 	biceq.w	r0, r0, ip, lsr #31
 8000bfe:	4770      	bx	lr

08000c00 <__aeabi_fmul>:
 8000c00:	f04f 0cff 	mov.w	ip, #255	@ 0xff
 8000c04:	ea1c 52d0 	ands.w	r2, ip, r0, lsr #23
 8000c08:	bf1e      	ittt	ne
 8000c0a:	ea1c 53d1 	andsne.w	r3, ip, r1, lsr #23
 8000c0e:	ea92 0f0c 	teqne	r2, ip
 8000c12:	ea93 0f0c 	teqne	r3, ip
 8000c16:	d06f      	beq.n	8000cf8 <__aeabi_fmul+0xf8>
 8000c18:	441a      	add	r2, r3
 8000c1a:	ea80 0c01 	eor.w	ip, r0, r1
 8000c1e:	0240      	lsls	r0, r0, #9
 8000c20:	bf18      	it	ne
 8000c22:	ea5f 2141 	movsne.w	r1, r1, lsl #9
 8000c26:	d01e      	beq.n	8000c66 <__aeabi_fmul+0x66>
 8000c28:	f04f 6300 	mov.w	r3, #134217728	@ 0x8000000
 8000c2c:	ea43 1050 	orr.w	r0, r3, r0, lsr #5
 8000c30:	ea43 1151 	orr.w	r1, r3, r1, lsr #5
 8000c34:	fba0 3101 	umull	r3, r1, r0, r1
 8000c38:	f00c 4000 	and.w	r0, ip, #2147483648	@ 0x80000000
 8000c3c:	f5b1 0f00 	cmp.w	r1, #8388608	@ 0x800000
 8000c40:	bf3e      	ittt	cc
 8000c42:	0049      	lslcc	r1, r1, #1
 8000c44:	ea41 71d3 	orrcc.w	r1, r1, r3, lsr #31
 8000c48:	005b      	lslcc	r3, r3, #1
 8000c4a:	ea40 0001 	orr.w	r0, r0, r1
 8000c4e:	f162 027f 	sbc.w	r2, r2, #127	@ 0x7f
 8000c52:	2afd      	cmp	r2, #253	@ 0xfd
 8000c54:	d81d      	bhi.n	8000c92 <__aeabi_fmul+0x92>
 8000c56:	f1b3 4f00 	cmp.w	r3, #2147483648	@ 0x80000000
 8000c5a:	eb40 50c2 	adc.w	r0, r0, r2, lsl #23
 8000c5e:	bf08      	it	eq
 8000c60:	f020 0001 	biceq.w	r0, r0, #1
 8000c64:	4770      	bx	lr
 8000c66:	f090 0f00 	teq	r0, #0
 8000c6a:	f00c 4c00 	and.w	ip, ip, #2147483648	@ 0x80000000
 8000c6e:	bf08      	it	eq
 8000c70:	0249      	lsleq	r1, r1, #9
 8000c72:	ea4c 2050 	orr.w	r0, ip, r0, lsr #9
 8000c76:	ea40 2051 	orr.w	r0, r0, r1, lsr #9
 8000c7a:	3a7f      	subs	r2, #127	@ 0x7f
 8000c7c:	bfc2      	ittt	gt
 8000c7e:	f1d2 03ff 	rsbsgt	r3, r2, #255	@ 0xff
 8000c82:	ea40 50c2 	orrgt.w	r0, r0, r2, lsl #23
 8000c86:	4770      	bxgt	lr
 8000c88:	f440 0000 	orr.w	r0, r0, #8388608	@ 0x800000
 8000c8c:	f04f 0300 	mov.w	r3, #0
 8000c90:	3a01      	subs	r2, #1
 8000c92:	dc5d      	bgt.n	8000d50 <__aeabi_fmul+0x150>
 8000c94:	f112 0f19 	cmn.w	r2, #25
 8000c98:	bfdc      	itt	le
 8000c9a:	f000 4000 	andle.w	r0, r0, #2147483648	@ 0x80000000
 8000c9e:	4770      	bxle	lr
 8000ca0:	f1c2 0200 	rsb	r2, r2, #0
 8000ca4:	0041      	lsls	r1, r0, #1
 8000ca6:	fa21 f102 	lsr.w	r1, r1, r2
 8000caa:	f1c2 0220 	rsb	r2, r2, #32
 8000cae:	fa00 fc02 	lsl.w	ip, r0, r2
 8000cb2:	ea5f 0031 	movs.w	r0, r1, rrx
 8000cb6:	f140 0000 	adc.w	r0, r0, #0
 8000cba:	ea53 034c 	orrs.w	r3, r3, ip, lsl #1
 8000cbe:	bf08      	it	eq
 8000cc0:	ea20 70dc 	biceq.w	r0, r0, ip, lsr #31
 8000cc4:	4770      	bx	lr
 8000cc6:	f092 0f00 	teq	r2, #0
 8000cca:	f000 4c00 	and.w	ip, r0, #2147483648	@ 0x80000000
 8000cce:	bf02      	ittt	eq
 8000cd0:	0040      	lsleq	r0, r0, #1
 8000cd2:	f410 0f00 	tsteq.w	r0, #8388608	@ 0x800000
 8000cd6:	3a01      	subeq	r2, #1
 8000cd8:	d0f9      	beq.n	8000cce <__aeabi_fmul+0xce>
 8000cda:	ea40 000c 	orr.w	r0, r0, ip
 8000cde:	f093 0f00 	teq	r3, #0
 8000ce2:	f001 4c00 	and.w	ip, r1, #2147483648	@ 0x80000000
 8000ce6:	bf02      	ittt	eq
 8000ce8:	0049      	lsleq	r1, r1, #1
 8000cea:	f411 0f00 	tsteq.w	r1, #8388608	@ 0x800000
 8000cee:	3b01      	subeq	r3, #1
 8000cf0:	d0f9      	beq.n	8000ce6 <__aeabi_fmul+0xe6>
 8000cf2:	ea41 010c 	orr.w	r1, r1, ip
 8000cf6:	e78f      	b.n	8000c18 <__aeabi_fmul+0x18>
 8000cf8:	ea0c 53d1 	and.w	r3, ip, r1, lsr #23
 8000cfc:	ea92 0f0c 	teq	r2, ip
 8000d00:	bf18      	it	ne
 8000d02:	ea93 0f0c 	teqne	r3, ip
 8000d06:	d00a      	beq.n	8000d1e <__aeabi_fmul+0x11e>
 8000d08:	f030 4c00 	bics.w	ip, r0, #2147483648	@ 0x80000000
 8000d0c:	bf18      	it	ne
 8000d0e:	f031 4c00 	bicsne.w	ip, r1, #2147483648	@ 0x80000000
 8000d12:	d1d8      	bne.n	8000cc6 <__aeabi_fmul+0xc6>
 8000d14:	ea80 0001 	eor.w	r0, r0, r1
 8000d18:	f000 4000 	and.w	r0, r0, #2147483648	@ 0x80000000
 8000d1c:	4770      	bx	lr
 8000d1e:	f090 0f00 	teq	r0, #0
 8000d22:	bf17      	itett	ne
 8000d24:	f090 4f00 	teqne	r0, #2147483648	@ 0x80000000
 8000d28:	4608      	moveq	r0, r1
 8000d2a:	f091 0f00 	teqne	r1, #0
 8000d2e:	f091 4f00 	teqne	r1, #2147483648	@ 0x80000000
 8000d32:	d014      	beq.n	8000d5e <__aeabi_fmul+0x15e>
 8000d34:	ea92 0f0c 	teq	r2, ip
 8000d38:	d101      	bne.n	8000d3e <__aeabi_fmul+0x13e>
 8000d3a:	0242      	lsls	r2, r0, #9
 8000d3c:	d10f      	bne.n	8000d5e <__aeabi_fmul+0x15e>
 8000d3e:	ea93 0f0c 	teq	r3, ip
 8000d42:	d103      	bne.n	8000d4c <__aeabi_fmul+0x14c>
 8000d44:	024b      	lsls	r3, r1, #9
 8000d46:	bf18      	it	ne
 8000d48:	4608      	movne	r0, r1
 8000d4a:	d108      	bne.n	8000d5e <__aeabi_fmul+0x15e>
 8000d4c:	ea80 0001 	eor.w	r0, r0, r1
 8000d50:	f000 4000 	and.w	r0, r0, #2147483648	@ 0x80000000
 8000d54:	f040 40fe 	orr.w	r0, r0, #2130706432	@ 0x7f000000
 8000d58:	f440 0000 	orr.w	r0, r0, #8388608	@ 0x800000
 8000d5c:	4770      	bx	lr
 8000d5e:	f040 40fe 	orr.w	r0, r0, #2130706432	@ 0x7f000000
 8000d62:	f440 0040 	orr.w	r0, r0, #12582912	@ 0xc00000
 8000d66:	4770      	bx	lr

08000d68 <__aeabi_fdiv>:
 8000d68:	f04f 0cff 	mov.w	ip, #255	@ 0xff
 8000d6c:	ea1c 52d0 	ands.w	r2, ip, r0, lsr #23
 8000d70:	bf1e      	ittt	ne
 8000d72:	ea1c 53d1 	andsne.w	r3, ip, r1, lsr #23
 8000d76:	ea92 0f0c 	teqne	r2, ip
 8000d7a:	ea93 0f0c 	teqne	r3, ip
 8000d7e:	d069      	beq.n	8000e54 <__aeabi_fdiv+0xec>
 8000d80:	eba2 0203 	sub.w	r2, r2, r3
 8000d84:	ea80 0c01 	eor.w	ip, r0, r1
 8000d88:	0249      	lsls	r1, r1, #9
 8000d8a:	ea4f 2040 	mov.w	r0, r0, lsl #9
 8000d8e:	d037      	beq.n	8000e00 <__aeabi_fdiv+0x98>
 8000d90:	f04f 5380 	mov.w	r3, #268435456	@ 0x10000000
 8000d94:	ea43 1111 	orr.w	r1, r3, r1, lsr #4
 8000d98:	ea43 1310 	orr.w	r3, r3, r0, lsr #4
 8000d9c:	f00c 4000 	and.w	r0, ip, #2147483648	@ 0x80000000
 8000da0:	428b      	cmp	r3, r1
 8000da2:	bf38      	it	cc
 8000da4:	005b      	lslcc	r3, r3, #1
 8000da6:	f142 027d 	adc.w	r2, r2, #125	@ 0x7d
 8000daa:	f44f 0c00 	mov.w	ip, #8388608	@ 0x800000
 8000dae:	428b      	cmp	r3, r1
 8000db0:	bf24      	itt	cs
 8000db2:	1a5b      	subcs	r3, r3, r1
 8000db4:	ea40 000c 	orrcs.w	r0, r0, ip
 8000db8:	ebb3 0f51 	cmp.w	r3, r1, lsr #1
 8000dbc:	bf24      	itt	cs
 8000dbe:	eba3 0351 	subcs.w	r3, r3, r1, lsr #1
 8000dc2:	ea40 005c 	orrcs.w	r0, r0, ip, lsr #1
 8000dc6:	ebb3 0f91 	cmp.w	r3, r1, lsr #2
 8000dca:	bf24      	itt	cs
 8000dcc:	eba3 0391 	subcs.w	r3, r3, r1, lsr #2
 8000dd0:	ea40 009c 	orrcs.w	r0, r0, ip, lsr #2
 8000dd4:	ebb3 0fd1 	cmp.w	r3, r1, lsr #3
 8000dd8:	bf24      	itt	cs
 8000dda:	eba3 03d1 	subcs.w	r3, r3, r1, lsr #3
 8000dde:	ea40 00dc 	orrcs.w	r0, r0, ip, lsr #3
 8000de2:	011b      	lsls	r3, r3, #4
 8000de4:	bf18      	it	ne
 8000de6:	ea5f 1c1c 	movsne.w	ip, ip, lsr #4
 8000dea:	d1e0      	bne.n	8000dae <__aeabi_fdiv+0x46>
 8000dec:	2afd      	cmp	r2, #253	@ 0xfd
 8000dee:	f63f af50 	bhi.w	8000c92 <__aeabi_fmul+0x92>
 8000df2:	428b      	cmp	r3, r1
 8000df4:	eb40 50c2 	adc.w	r0, r0, r2, lsl #23
 8000df8:	bf08      	it	eq
 8000dfa:	f020 0001 	biceq.w	r0, r0, #1
 8000dfe:	4770      	bx	lr
 8000e00:	f00c 4c00 	and.w	ip, ip, #2147483648	@ 0x80000000
 8000e04:	ea4c 2050 	orr.w	r0, ip, r0, lsr #9
 8000e08:	327f      	adds	r2, #127	@ 0x7f
 8000e0a:	bfc2      	ittt	gt
 8000e0c:	f1d2 03ff 	rsbsgt	r3, r2, #255	@ 0xff
 8000e10:	ea40 50c2 	orrgt.w	r0, r0, r2, lsl #23
 8000e14:	4770      	bxgt	lr
 8000e16:	f440 0000 	orr.w	r0, r0, #8388608	@ 0x800000
 8000e1a:	f04f 0300 	mov.w	r3, #0
 8000e1e:	3a01      	subs	r2, #1
 8000e20:	e737      	b.n	8000c92 <__aeabi_fmul+0x92>
 8000e22:	f092 0f00 	teq	r2, #0
 8000e26:	f000 4c00 	and.w	ip, r0, #2147483648	@ 0x80000000
 8000e2a:	bf02      	ittt	eq
 8000e2c:	0040      	lsleq	r0, r0, #1
 8000e2e:	f410 0f00 	tsteq.w	r0, #8388608	@ 0x800000
 8000e32:	3a01      	subeq	r2, #1
 8000e34:	d0f9      	beq.n	8000e2a <__aeabi_fdiv+0xc2>
 8000e36:	ea40 000c 	orr.w	r0, r0, ip
 8000e3a:	f093 0f00 	teq	r3, #0
 8000e3e:	f001 4c00 	and.w	ip, r1, #2147483648	@ 0x80000000
 8000e42:	bf02      	ittt	eq
 8000e44:	0049      	lsleq	r1, r1, #1
 8000e46:	f411 0f00 	tsteq.w	r1, #8388608	@ 0x800000
 8000e4a:	3b01      	subeq	r3, #1
 8000e4c:	d0f9      	beq.n	8000e42 <__aeabi_fdiv+0xda>
 8000e4e:	ea41 010c 	orr.w	r1, r1, ip
 8000e52:	e795      	b.n	8000d80 <__aeabi_fdiv+0x18>
 8000e54:	ea0c 53d1 	and.w	r3, ip, r1, lsr #23
 8000e58:	ea92 0f0c 	teq	r2, ip
 8000e5c:	d108      	bne.n	8000e70 <__aeabi_fdiv+0x108>
 8000e5e:	0242      	lsls	r2, r0, #9
 8000e60:	f47f af7d 	bne.w	8000d5e <__aeabi_fmul+0x15e>
 8000e64:	ea93 0f0c 	teq	r3, ip
 8000e68:	f47f af70 	bne.w	8000d4c <__aeabi_fmul+0x14c>
 8000e6c:	4608      	mov	r0, r1
 8000e6e:	e776      	b.n	8000d5e <__aeabi_fmul+0x15e>
 8000e70:	ea93 0f0c 	teq	r3, ip
 8000e74:	d104      	bne.n	8000e80 <__aeabi_fdiv+0x118>
 8000e76:	024b      	lsls	r3, r1, #9
 8000e78:	f43f af4c 	beq.w	8000d14 <__aeabi_fmul+0x114>
 8000e7c:	4608      	mov	r0, r1
 8000e7e:	e76e      	b.n	8000d5e <__aeabi_fmul+0x15e>
 8000e80:	f030 4c00 	bics.w	ip, r0, #2147483648	@ 0x80000000
 8000e84:	bf18      	it	ne
 8000e86:	f031 4c00 	bicsne.w	ip, r1, #2147483648	@ 0x80000000
 8000e8a:	d1ca      	bne.n	8000e22 <__aeabi_fdiv+0xba>
 8000e8c:	f030 4200 	bics.w	r2, r0, #2147483648	@ 0x80000000
 8000e90:	f47f af5c 	bne.w	8000d4c <__aeabi_fmul+0x14c>
 8000e94:	f031 4300 	bics.w	r3, r1, #2147483648	@ 0x80000000
 8000e98:	f47f af3c 	bne.w	8000d14 <__aeabi_fmul+0x114>
 8000e9c:	e75f      	b.n	8000d5e <__aeabi_fmul+0x15e>
 8000e9e:	bf00      	nop

08000ea0 <__gesf2>:
 8000ea0:	f04f 3cff 	mov.w	ip, #4294967295	@ 0xffffffff
 8000ea4:	e006      	b.n	8000eb4 <__cmpsf2+0x4>
 8000ea6:	bf00      	nop

08000ea8 <__lesf2>:
 8000ea8:	f04f 0c01 	mov.w	ip, #1
 8000eac:	e002      	b.n	8000eb4 <__cmpsf2+0x4>
 8000eae:	bf00      	nop

08000eb0 <__cmpsf2>:
 8000eb0:	f04f 0c01 	mov.w	ip, #1
 8000eb4:	f84d cd04 	str.w	ip, [sp, #-4]!
 8000eb8:	ea4f 0240 	mov.w	r2, r0, lsl #1
 8000ebc:	ea4f 0341 	mov.w	r3, r1, lsl #1
 8000ec0:	ea7f 6c22 	mvns.w	ip, r2, asr #24
 8000ec4:	bf18      	it	ne
 8000ec6:	ea7f 6c23 	mvnsne.w	ip, r3, asr #24
 8000eca:	d011      	beq.n	8000ef0 <__cmpsf2+0x40>
 8000ecc:	b001      	add	sp, #4
 8000ece:	ea52 0c53 	orrs.w	ip, r2, r3, lsr #1
 8000ed2:	bf18      	it	ne
 8000ed4:	ea90 0f01 	teqne	r0, r1
 8000ed8:	bf58      	it	pl
 8000eda:	ebb2 0003 	subspl.w	r0, r2, r3
 8000ede:	bf88      	it	hi
 8000ee0:	17c8      	asrhi	r0, r1, #31
 8000ee2:	bf38      	it	cc
 8000ee4:	ea6f 70e1 	mvncc.w	r0, r1, asr #31
 8000ee8:	bf18      	it	ne
 8000eea:	f040 0001 	orrne.w	r0, r0, #1
 8000eee:	4770      	bx	lr
 8000ef0:	ea7f 6c22 	mvns.w	ip, r2, asr #24
 8000ef4:	d102      	bne.n	8000efc <__cmpsf2+0x4c>
 8000ef6:	ea5f 2c40 	movs.w	ip, r0, lsl #9
 8000efa:	d105      	bne.n	8000f08 <__cmpsf2+0x58>
 8000efc:	ea7f 6c23 	mvns.w	ip, r3, asr #24
 8000f00:	d1e4      	bne.n	8000ecc <__cmpsf2+0x1c>
 8000f02:	ea5f 2c41 	movs.w	ip, r1, lsl #9
 8000f06:	d0e1      	beq.n	8000ecc <__cmpsf2+0x1c>
 8000f08:	f85d 0b04 	ldr.w	r0, [sp], #4
 8000f0c:	4770      	bx	lr
 8000f0e:	bf00      	nop

08000f10 <__aeabi_cfrcmple>:
 8000f10:	4684      	mov	ip, r0
 8000f12:	4608      	mov	r0, r1
 8000f14:	4661      	mov	r1, ip
 8000f16:	e7ff      	b.n	8000f18 <__aeabi_cfcmpeq>

08000f18 <__aeabi_cfcmpeq>:
 8000f18:	b50f      	push	{r0, r1, r2, r3, lr}
 8000f1a:	f7ff ffc9 	bl	8000eb0 <__cmpsf2>
 8000f1e:	2800      	cmp	r0, #0
 8000f20:	bf48      	it	mi
 8000f22:	f110 0f00 	cmnmi.w	r0, #0
 8000f26:	bd0f      	pop	{r0, r1, r2, r3, pc}

08000f28 <__aeabi_fcmpeq>:
 8000f28:	f84d ed08 	str.w	lr, [sp, #-8]!
 8000f2c:	f7ff fff4 	bl	8000f18 <__aeabi_cfcmpeq>
 8000f30:	bf0c      	ite	eq
 8000f32:	2001      	moveq	r0, #1
 8000f34:	2000      	movne	r0, #0
 8000f36:	f85d fb08 	ldr.w	pc, [sp], #8
 8000f3a:	bf00      	nop

08000f3c <__aeabi_fcmplt>:
 8000f3c:	f84d ed08 	str.w	lr, [sp, #-8]!
 8000f40:	f7ff ffea 	bl	8000f18 <__aeabi_cfcmpeq>
 8000f44:	bf34      	ite	cc
 8000f46:	2001      	movcc	r0, #1
 8000f48:	2000      	movcs	r0, #0
 8000f4a:	f85d fb08 	ldr.w	pc, [sp], #8
 8000f4e:	bf00      	nop

08000f50 <__aeabi_fcmple>:
 8000f50:	f84d ed08 	str.w	lr, [sp, #-8]!
 8000f54:	f7ff ffe0 	bl	8000f18 <__aeabi_cfcmpeq>
 8000f58:	bf94      	ite	ls
 8000f5a:	2001      	movls	r0, #1
 8000f5c:	2000      	movhi	r0, #0
 8000f5e:	f85d fb08 	ldr.w	pc, [sp], #8
 8000f62:	bf00      	nop

08000f64 <__aeabi_fcmpge>:
 8000f64:	f84d ed08 	str.w	lr, [sp, #-8]!
 8000f68:	f7ff ffd2 	bl	8000f10 <__aeabi_cfrcmple>
 8000f6c:	bf94      	ite	ls
 8000f6e:	2001      	movls	r0, #1
 8000f70:	2000      	movhi	r0, #0
 8000f72:	f85d fb08 	ldr.w	pc, [sp], #8
 8000f76:	bf00      	nop

08000f78 <__aeabi_fcmpgt>:
 8000f78:	f84d ed08 	str.w	lr, [sp, #-8]!
 8000f7c:	f7ff ffc8 	bl	8000f10 <__aeabi_cfrcmple>
 8000f80:	bf34      	ite	cc
 8000f82:	2001      	movcc	r0, #1
 8000f84:	2000      	movcs	r0, #0
 8000f86:	f85d fb08 	ldr.w	pc, [sp], #8
 8000f8a:	bf00      	nop

08000f8c <__aeabi_fcmpun>:
 8000f8c:	ea4f 0240 	mov.w	r2, r0, lsl #1
 8000f90:	ea4f 0341 	mov.w	r3, r1, lsl #1
 8000f94:	ea7f 6c22 	mvns.w	ip, r2, asr #24
 8000f98:	d102      	bne.n	8000fa0 <__aeabi_fcmpun+0x14>
 8000f9a:	ea5f 2c40 	movs.w	ip, r0, lsl #9
 8000f9e:	d108      	bne.n	8000fb2 <__aeabi_fcmpun+0x26>
 8000fa0:	ea7f 6c23 	mvns.w	ip, r3, asr #24
 8000fa4:	d102      	bne.n	8000fac <__aeabi_fcmpun+0x20>
 8000fa6:	ea5f 2c41 	movs.w	ip, r1, lsl #9
 8000faa:	d102      	bne.n	8000fb2 <__aeabi_fcmpun+0x26>
 8000fac:	f04f 0000 	mov.w	r0, #0
 8000fb0:	4770      	bx	lr
 8000fb2:	f04f 0001 	mov.w	r0, #1
 8000fb6:	4770      	bx	lr

08000fb8 <__aeabi_f2iz>:
 8000fb8:	ea4f 0240 	mov.w	r2, r0, lsl #1
 8000fbc:	f1b2 4ffe 	cmp.w	r2, #2130706432	@ 0x7f000000
 8000fc0:	d30f      	bcc.n	8000fe2 <__aeabi_f2iz+0x2a>
 8000fc2:	f04f 039e 	mov.w	r3, #158	@ 0x9e
 8000fc6:	ebb3 6212 	subs.w	r2, r3, r2, lsr #24
 8000fca:	d90d      	bls.n	8000fe8 <__aeabi_f2iz+0x30>
 8000fcc:	ea4f 2300 	mov.w	r3, r0, lsl #8
 8000fd0:	f043 4300 	orr.w	r3, r3, #2147483648	@ 0x80000000
 8000fd4:	f010 4f00 	tst.w	r0, #2147483648	@ 0x80000000
 8000fd8:	fa23 f002 	lsr.w	r0, r3, r2
 8000fdc:	bf18      	it	ne
 8000fde:	4240      	negne	r0, r0
 8000fe0:	4770      	bx	lr
 8000fe2:	f04f 0000 	mov.w	r0, #0
 8000fe6:	4770      	bx	lr
 8000fe8:	f112 0f61 	cmn.w	r2, #97	@ 0x61
 8000fec:	d101      	bne.n	8000ff2 <__aeabi_f2iz+0x3a>
 8000fee:	0242      	lsls	r2, r0, #9
 8000ff0:	d105      	bne.n	8000ffe <__aeabi_f2iz+0x46>
 8000ff2:	f010 4000 	ands.w	r0, r0, #2147483648	@ 0x80000000
 8000ff6:	bf08      	it	eq
 8000ff8:	f06f 4000 	mvneq.w	r0, #2147483648	@ 0x80000000
 8000ffc:	4770      	bx	lr
 8000ffe:	f04f 0000 	mov.w	r0, #0
 8001002:	4770      	bx	lr

08001004 <BSW_voidInit>:
static float BSW_LeftDist = 0.0f;           /* Side US distances (from SafetyEngine) */
static float BSW_RightDist = 0.0f;

/* ============ Init ============ */
void BSW_voidInit(void)
{
 8001004:	b480      	push	{r7}
 8001006:	af00      	add	r7, sp, #0
  BSW_LeftFlag = 0;
 8001008:	4b04      	ldr	r3, [pc, #16]	@ (800101c <BSW_voidInit+0x18>)
 800100a:	2200      	movs	r2, #0
 800100c:	701a      	strb	r2, [r3, #0]
  BSW_RightFlag = 0;
 800100e:	4b04      	ldr	r3, [pc, #16]	@ (8001020 <BSW_voidInit+0x1c>)
 8001010:	2200      	movs	r2, #0
 8001012:	701a      	strb	r2, [r3, #0]
}
 8001014:	bf00      	nop
 8001016:	46bd      	mov	sp, r7
 8001018:	bc80      	pop	{r7}
 800101a:	4770      	bx	lr
 800101c:	200000cc 	.word	0x200000cc
 8001020:	200000cd 	.word	0x200000cd

08001024 <BSW_voidBeginCycle>:
 *
 * @param left_dist   Min of front-left and rear-left US distance (cm)
 * @param right_dist  Min of front-right and rear-right US distance (cm)
 */
void BSW_voidBeginCycle(float left_dist, float right_dist)
{
 8001024:	b480      	push	{r7}
 8001026:	b083      	sub	sp, #12
 8001028:	af00      	add	r7, sp, #0
 800102a:	6078      	str	r0, [r7, #4]
 800102c:	6039      	str	r1, [r7, #0]
  /* Save distances for EndCycle */
  BSW_LeftDist = left_dist;
 800102e:	4a07      	ldr	r2, [pc, #28]	@ (800104c <BSW_voidBeginCycle+0x28>)
 8001030:	687b      	ldr	r3, [r7, #4]
 8001032:	6013      	str	r3, [r2, #0]
  BSW_RightDist = right_dist;
 8001034:	4a06      	ldr	r2, [pc, #24]	@ (8001050 <BSW_voidBeginCycle+0x2c>)
 8001036:	683b      	ldr	r3, [r7, #0]
 8001038:	6013      	str	r3, [r2, #0]

  /* Reset DSRC accumulator */
  BSW_SameDirectionExists = 0;
 800103a:	4b06      	ldr	r3, [pc, #24]	@ (8001054 <BSW_voidBeginCycle+0x30>)
 800103c:	2200      	movs	r2, #0
 800103e:	701a      	strb	r2, [r3, #0]
}
 8001040:	bf00      	nop
 8001042:	370c      	adds	r7, #12
 8001044:	46bd      	mov	sp, r7
 8001046:	bc80      	pop	{r7}
 8001048:	4770      	bx	lr
 800104a:	bf00      	nop
 800104c:	200000d0 	.word	0x200000d0
 8001050:	200000d4 	.word	0x200000d4
 8001054:	200000ce 	.word	0x200000ce

08001058 <BSW_voidProcessNeighbor>:
 * Step 1 (DSRC gate): Is there a vehicle going in the same direction?
 *        If yes → set flag. BSW will check US in EndCycle.
 *        If not same direction → ignore (not a blind-spot threat).
 */
void BSW_voidProcessNeighbor(const Neighbor *n, Direction_t dir)
{
 8001058:	b480      	push	{r7}
 800105a:	b083      	sub	sp, #12
 800105c:	af00      	add	r7, sp, #0
 800105e:	6078      	str	r0, [r7, #4]
 8001060:	460b      	mov	r3, r1
 8001062:	70fb      	strb	r3, [r7, #3]
  (void)n; /* vehicle_id not used currently */

  /* Only same-direction vehicles are blind-spot candidates */
  if (dir == DIR_SAME)
 8001064:	78fb      	ldrb	r3, [r7, #3]
 8001066:	2b00      	cmp	r3, #0
 8001068:	d102      	bne.n	8001070 <BSW_voidProcessNeighbor+0x18>
  {
    BSW_SameDirectionExists = 1;
 800106a:	4b04      	ldr	r3, [pc, #16]	@ (800107c <BSW_voidProcessNeighbor+0x24>)
 800106c:	2201      	movs	r2, #1
 800106e:	701a      	strb	r2, [r3, #0]
  }
}
 8001070:	bf00      	nop
 8001072:	370c      	adds	r7, #12
 8001074:	46bd      	mov	sp, r7
 8001076:	bc80      	pop	{r7}
 8001078:	4770      	bx	lr
 800107a:	bf00      	nop
 800107c:	200000ce 	.word	0x200000ce

08001080 <BSW_voidEndCycle>:
 *      - Left US  < threshold → vehicle on left  → alert left
 *      - Right US < threshold → vehicle on right → alert right
 *   3. If no same-direction vehicle → no blind-spot risk → clear alerts
 */
void BSW_voidEndCycle(void)
{
 8001080:	b580      	push	{r7, lr}
 8001082:	af00      	add	r7, sp, #0
  /* Reset flags */
  BSW_LeftFlag = 0;
 8001084:	4b25      	ldr	r3, [pc, #148]	@ (800111c <BSW_voidEndCycle+0x9c>)
 8001086:	2200      	movs	r2, #0
 8001088:	701a      	strb	r2, [r3, #0]
  BSW_RightFlag = 0;
 800108a:	4b25      	ldr	r3, [pc, #148]	@ (8001120 <BSW_voidEndCycle+0xa0>)
 800108c:	2200      	movs	r2, #0
 800108e:	701a      	strb	r2, [r3, #0]

  /* Gate: no same-direction vehicle from DSRC → no blind-spot risk */
  if (!BSW_SameDirectionExists)
 8001090:	4b24      	ldr	r3, [pc, #144]	@ (8001124 <BSW_voidEndCycle+0xa4>)
 8001092:	781b      	ldrb	r3, [r3, #0]
 8001094:	2b00      	cmp	r3, #0
 8001096:	d106      	bne.n	80010a6 <BSW_voidEndCycle+0x26>
  {
    BSW_DeactivateAlert(BSW_LEFT);
 8001098:	2000      	movs	r0, #0
 800109a:	f000 f855 	bl	8001148 <BSW_DeactivateAlert>
    BSW_DeactivateAlert(BSW_RIGHT);
 800109e:	2001      	movs	r0, #1
 80010a0:	f000 f852 	bl	8001148 <BSW_DeactivateAlert>
    return;
 80010a4:	e039      	b.n	800111a <BSW_voidEndCycle+0x9a>
   * DSRC confirmed a same-direction vehicle exists.
   * Now check US sensors to determine WHICH side.
   */

  /* -------- LEFT SIDE -------- */
  if (BSW_LeftDist > 0.0f && BSW_LeftDist < BSW_SIDE_THRESHOLD)
 80010a6:	4b20      	ldr	r3, [pc, #128]	@ (8001128 <BSW_voidEndCycle+0xa8>)
 80010a8:	681b      	ldr	r3, [r3, #0]
 80010aa:	f04f 0100 	mov.w	r1, #0
 80010ae:	4618      	mov	r0, r3
 80010b0:	f7ff ff62 	bl	8000f78 <__aeabi_fcmpgt>
 80010b4:	4603      	mov	r3, r0
 80010b6:	2b00      	cmp	r3, #0
 80010b8:	d00f      	beq.n	80010da <BSW_voidEndCycle+0x5a>
 80010ba:	4b1b      	ldr	r3, [pc, #108]	@ (8001128 <BSW_voidEndCycle+0xa8>)
 80010bc:	681b      	ldr	r3, [r3, #0]
 80010be:	491b      	ldr	r1, [pc, #108]	@ (800112c <BSW_voidEndCycle+0xac>)
 80010c0:	4618      	mov	r0, r3
 80010c2:	f7ff ff3b 	bl	8000f3c <__aeabi_fcmplt>
 80010c6:	4603      	mov	r3, r0
 80010c8:	2b00      	cmp	r3, #0
 80010ca:	d006      	beq.n	80010da <BSW_voidEndCycle+0x5a>
  {
    BSW_LeftFlag = 1;
 80010cc:	4b13      	ldr	r3, [pc, #76]	@ (800111c <BSW_voidEndCycle+0x9c>)
 80010ce:	2201      	movs	r2, #1
 80010d0:	701a      	strb	r2, [r3, #0]
    BSW_ActivateAlert(BSW_LEFT);
 80010d2:	2000      	movs	r0, #0
 80010d4:	f000 f82e 	bl	8001134 <BSW_ActivateAlert>
 80010d8:	e002      	b.n	80010e0 <BSW_voidEndCycle+0x60>
  }
  else
  {
    BSW_DeactivateAlert(BSW_LEFT);
 80010da:	2000      	movs	r0, #0
 80010dc:	f000 f834 	bl	8001148 <BSW_DeactivateAlert>
  }

  /* -------- RIGHT SIDE -------- */
  if (BSW_RightDist > 0.0f && BSW_RightDist < BSW_SIDE_THRESHOLD)
 80010e0:	4b13      	ldr	r3, [pc, #76]	@ (8001130 <BSW_voidEndCycle+0xb0>)
 80010e2:	681b      	ldr	r3, [r3, #0]
 80010e4:	f04f 0100 	mov.w	r1, #0
 80010e8:	4618      	mov	r0, r3
 80010ea:	f7ff ff45 	bl	8000f78 <__aeabi_fcmpgt>
 80010ee:	4603      	mov	r3, r0
 80010f0:	2b00      	cmp	r3, #0
 80010f2:	d00f      	beq.n	8001114 <BSW_voidEndCycle+0x94>
 80010f4:	4b0e      	ldr	r3, [pc, #56]	@ (8001130 <BSW_voidEndCycle+0xb0>)
 80010f6:	681b      	ldr	r3, [r3, #0]
 80010f8:	490c      	ldr	r1, [pc, #48]	@ (800112c <BSW_voidEndCycle+0xac>)
 80010fa:	4618      	mov	r0, r3
 80010fc:	f7ff ff1e 	bl	8000f3c <__aeabi_fcmplt>
 8001100:	4603      	mov	r3, r0
 8001102:	2b00      	cmp	r3, #0
 8001104:	d006      	beq.n	8001114 <BSW_voidEndCycle+0x94>
  {
    BSW_RightFlag = 1;
 8001106:	4b06      	ldr	r3, [pc, #24]	@ (8001120 <BSW_voidEndCycle+0xa0>)
 8001108:	2201      	movs	r2, #1
 800110a:	701a      	strb	r2, [r3, #0]
    BSW_ActivateAlert(BSW_RIGHT);
 800110c:	2001      	movs	r0, #1
 800110e:	f000 f811 	bl	8001134 <BSW_ActivateAlert>
 8001112:	e002      	b.n	800111a <BSW_voidEndCycle+0x9a>
  }
  else
  {
    BSW_DeactivateAlert(BSW_RIGHT);
 8001114:	2001      	movs	r0, #1
 8001116:	f000 f817 	bl	8001148 <BSW_DeactivateAlert>
  }
}
 800111a:	bd80      	pop	{r7, pc}
 800111c:	200000cc 	.word	0x200000cc
 8001120:	200000cd 	.word	0x200000cd
 8001124:	200000ce 	.word	0x200000ce
 8001128:	200000d0 	.word	0x200000d0
 800112c:	43160000 	.word	0x43160000
 8001130:	200000d4 	.word	0x200000d4

08001134 <BSW_ActivateAlert>:

/**
 * @brief Activate blind-spot alert on specified side
 */
static void BSW_ActivateAlert(uint8_t side)
{
 8001134:	b480      	push	{r7}
 8001136:	b083      	sub	sp, #12
 8001138:	af00      	add	r7, sp, #0
 800113a:	4603      	mov	r3, r0
 800113c:	71fb      	strb	r3, [r7, #7]
#endif

#if BSW_ENABLE_BUZZER
  /* BUZZER_SHORT_BEEP(); */
#endif
}
 800113e:	bf00      	nop
 8001140:	370c      	adds	r7, #12
 8001142:	46bd      	mov	sp, r7
 8001144:	bc80      	pop	{r7}
 8001146:	4770      	bx	lr

08001148 <BSW_DeactivateAlert>:

/**
 * @brief Deactivate blind-spot alert on specified side
 */
static void BSW_DeactivateAlert(uint8_t side)
{
 8001148:	b480      	push	{r7}
 800114a:	b083      	sub	sp, #12
 800114c:	af00      	add	r7, sp, #0
 800114e:	4603      	mov	r3, r0
 8001150:	71fb      	strb	r3, [r7, #7]
#endif

#if BSW_ENABLE_BUZZER
  /* BUZZER_OFF(); */
#endif
}
 8001152:	bf00      	nop
 8001154:	370c      	adds	r7, #12
 8001156:	46bd      	mov	sp, r7
 8001158:	bc80      	pop	{r7}
 800115a:	4770      	bx	lr

0800115c <DNPW_voidInit>:
static RiskLevel_t DNPW_WorstRisk       = RISK_SAFE; /* Worst TTC risk from opposite neighbors */
static float      DNPW_FrontDist        = 0.0f; /* Front US distance (saved from BeginCycle) */

/* ============ Init ============ */
void DNPW_voidInit(void)
{
 800115c:	b480      	push	{r7}
 800115e:	af00      	add	r7, sp, #0
  DNPW_CurrentFlag     = 0;
 8001160:	4b09      	ldr	r3, [pc, #36]	@ (8001188 <DNPW_voidInit+0x2c>)
 8001162:	2200      	movs	r2, #0
 8001164:	701a      	strb	r2, [r3, #0]
  DNPW_OppositeDetected = 0;
 8001166:	4b09      	ldr	r3, [pc, #36]	@ (800118c <DNPW_voidInit+0x30>)
 8001168:	2200      	movs	r2, #0
 800116a:	701a      	strb	r2, [r3, #0]
  DNPW_FrontVehicle    = 0;
 800116c:	4b08      	ldr	r3, [pc, #32]	@ (8001190 <DNPW_voidInit+0x34>)
 800116e:	2200      	movs	r2, #0
 8001170:	701a      	strb	r2, [r3, #0]
  DNPW_WorstRisk       = RISK_SAFE;
 8001172:	4b08      	ldr	r3, [pc, #32]	@ (8001194 <DNPW_voidInit+0x38>)
 8001174:	2200      	movs	r2, #0
 8001176:	701a      	strb	r2, [r3, #0]
  DNPW_FrontDist       = 0.0f;
 8001178:	4b07      	ldr	r3, [pc, #28]	@ (8001198 <DNPW_voidInit+0x3c>)
 800117a:	f04f 0200 	mov.w	r2, #0
 800117e:	601a      	str	r2, [r3, #0]
}
 8001180:	bf00      	nop
 8001182:	46bd      	mov	sp, r7
 8001184:	bc80      	pop	{r7}
 8001186:	4770      	bx	lr
 8001188:	200000d8 	.word	0x200000d8
 800118c:	200000d9 	.word	0x200000d9
 8001190:	200000da 	.word	0x200000da
 8001194:	200000db 	.word	0x200000db
 8001198:	200000dc 	.word	0x200000dc

0800119c <DNPW_voidBeginCycle>:
 *  Step 2: Reset DSRC accumulators
 *
 * @param front_dist Front ultrasonic distance (cm)
 */
void DNPW_voidBeginCycle(float front_dist)
{
 800119c:	b580      	push	{r7, lr}
 800119e:	b082      	sub	sp, #8
 80011a0:	af00      	add	r7, sp, #0
 80011a2:	6078      	str	r0, [r7, #4]
  /* Save front distance for TTC calculation in ProcessNeighbor */
  DNPW_FrontDist = front_dist;
 80011a4:	4a11      	ldr	r2, [pc, #68]	@ (80011ec <DNPW_voidBeginCycle+0x50>)
 80011a6:	687b      	ldr	r3, [r7, #4]
 80011a8:	6013      	str	r3, [r2, #0]

  /* Gate: is there a vehicle ahead? (driver is behind someone, considering overtaking) */
  if (front_dist > 0.0f && front_dist < DNPW_FRONT_THRESHOLD)
 80011aa:	f04f 0100 	mov.w	r1, #0
 80011ae:	6878      	ldr	r0, [r7, #4]
 80011b0:	f7ff fee2 	bl	8000f78 <__aeabi_fcmpgt>
 80011b4:	4603      	mov	r3, r0
 80011b6:	2b00      	cmp	r3, #0
 80011b8:	d00a      	beq.n	80011d0 <DNPW_voidBeginCycle+0x34>
 80011ba:	490d      	ldr	r1, [pc, #52]	@ (80011f0 <DNPW_voidBeginCycle+0x54>)
 80011bc:	6878      	ldr	r0, [r7, #4]
 80011be:	f7ff febd 	bl	8000f3c <__aeabi_fcmplt>
 80011c2:	4603      	mov	r3, r0
 80011c4:	2b00      	cmp	r3, #0
 80011c6:	d003      	beq.n	80011d0 <DNPW_voidBeginCycle+0x34>
  {
    DNPW_FrontVehicle = 1;
 80011c8:	4b0a      	ldr	r3, [pc, #40]	@ (80011f4 <DNPW_voidBeginCycle+0x58>)
 80011ca:	2201      	movs	r2, #1
 80011cc:	701a      	strb	r2, [r3, #0]
 80011ce:	e002      	b.n	80011d6 <DNPW_voidBeginCycle+0x3a>
  }
  else
  {
    DNPW_FrontVehicle = 0;
 80011d0:	4b08      	ldr	r3, [pc, #32]	@ (80011f4 <DNPW_voidBeginCycle+0x58>)
 80011d2:	2200      	movs	r2, #0
 80011d4:	701a      	strb	r2, [r3, #0]
  }

  /* Reset DSRC accumulators */
  DNPW_OppositeDetected = 0;
 80011d6:	4b08      	ldr	r3, [pc, #32]	@ (80011f8 <DNPW_voidBeginCycle+0x5c>)
 80011d8:	2200      	movs	r2, #0
 80011da:	701a      	strb	r2, [r3, #0]
  DNPW_WorstRisk        = RISK_SAFE;
 80011dc:	4b07      	ldr	r3, [pc, #28]	@ (80011fc <DNPW_voidBeginCycle+0x60>)
 80011de:	2200      	movs	r2, #0
 80011e0:	701a      	strb	r2, [r3, #0]
}
 80011e2:	bf00      	nop
 80011e4:	3708      	adds	r7, #8
 80011e6:	46bd      	mov	sp, r7
 80011e8:	bd80      	pop	{r7, pc}
 80011ea:	bf00      	nop
 80011ec:	200000dc 	.word	0x200000dc
 80011f0:	43960000 	.word	0x43960000
 80011f4:	200000da 	.word	0x200000da
 80011f8:	200000d9 	.word	0x200000d9
 80011fc:	200000db 	.word	0x200000db

08001200 <DNPW_voidProcessNeighbor>:
 *
 * @param n   Pointer to neighbor data
 * @param dir Pre-computed direction (from SafetyEngine_DetectDirection)
 */
void DNPW_voidProcessNeighbor(const Neighbor *n, Direction_t dir)
{
 8001200:	b580      	push	{r7, lr}
 8001202:	b086      	sub	sp, #24
 8001204:	af00      	add	r7, sp, #0
 8001206:	6078      	str	r0, [r7, #4]
 8001208:	460b      	mov	r3, r1
 800120a:	70fb      	strb	r3, [r7, #3]
  /* Only opposite-direction vehicles are an overtaking threat */
  if (dir != DIR_OPPOSITE)
 800120c:	78fb      	ldrb	r3, [r7, #3]
 800120e:	2b01      	cmp	r3, #1
 8001210:	d136      	bne.n	8001280 <DNPW_voidProcessNeighbor+0x80>
  {
    return;
  }

  /* Mark that at least one opposite vehicle exists */
  DNPW_OppositeDetected = 1;
 8001212:	4b1d      	ldr	r3, [pc, #116]	@ (8001288 <DNPW_voidProcessNeighbor+0x88>)
 8001214:	2201      	movs	r2, #1
 8001216:	701a      	strb	r2, [r3, #0]

  /* Calculate closing speed (opposite = speeds add up) */
  float rel_speed = Host_Speed + n->speed;
 8001218:	687b      	ldr	r3, [r7, #4]
 800121a:	685b      	ldr	r3, [r3, #4]
 800121c:	4a1b      	ldr	r2, [pc, #108]	@ (800128c <DNPW_voidProcessNeighbor+0x8c>)
 800121e:	6812      	ldr	r2, [r2, #0]
 8001220:	4611      	mov	r1, r2
 8001222:	4618      	mov	r0, r3
 8001224:	f7ff fbe4 	bl	80009f0 <__addsf3>
 8001228:	4603      	mov	r3, r0
 800122a:	617b      	str	r3, [r7, #20]

  if (rel_speed > 0.0f && DNPW_FrontDist > 0.0f)
 800122c:	f04f 0100 	mov.w	r1, #0
 8001230:	6978      	ldr	r0, [r7, #20]
 8001232:	f7ff fea1 	bl	8000f78 <__aeabi_fcmpgt>
 8001236:	4603      	mov	r3, r0
 8001238:	2b00      	cmp	r3, #0
 800123a:	d022      	beq.n	8001282 <DNPW_voidProcessNeighbor+0x82>
 800123c:	4b14      	ldr	r3, [pc, #80]	@ (8001290 <DNPW_voidProcessNeighbor+0x90>)
 800123e:	681b      	ldr	r3, [r3, #0]
 8001240:	f04f 0100 	mov.w	r1, #0
 8001244:	4618      	mov	r0, r3
 8001246:	f7ff fe97 	bl	8000f78 <__aeabi_fcmpgt>
 800124a:	4603      	mov	r3, r0
 800124c:	2b00      	cmp	r3, #0
 800124e:	d018      	beq.n	8001282 <DNPW_voidProcessNeighbor+0x82>
  {
    float ttc = SafetyEngine_CalcTTC(DNPW_FrontDist, rel_speed);
 8001250:	4b0f      	ldr	r3, [pc, #60]	@ (8001290 <DNPW_voidProcessNeighbor+0x90>)
 8001252:	681b      	ldr	r3, [r3, #0]
 8001254:	6979      	ldr	r1, [r7, #20]
 8001256:	4618      	mov	r0, r3
 8001258:	f001 f950 	bl	80024fc <SafetyEngine_CalcTTC>
 800125c:	6138      	str	r0, [r7, #16]
    RiskLevel_t level = SafetyEngine_EvaluateRisk(ttc, DNPW_WARNING_TTC, DNPW_CRITICAL_TTC);
 800125e:	f04f 4281 	mov.w	r2, #1082130432	@ 0x40800000
 8001262:	490c      	ldr	r1, [pc, #48]	@ (8001294 <DNPW_voidProcessNeighbor+0x94>)
 8001264:	6938      	ldr	r0, [r7, #16]
 8001266:	f001 f963 	bl	8002530 <SafetyEngine_EvaluateRisk>
 800126a:	4603      	mov	r3, r0
 800126c:	73fb      	strb	r3, [r7, #15]

    /* Track worst risk across all opposite neighbors (conservative) */
    if (level > DNPW_WorstRisk)
 800126e:	4b0a      	ldr	r3, [pc, #40]	@ (8001298 <DNPW_voidProcessNeighbor+0x98>)
 8001270:	781b      	ldrb	r3, [r3, #0]
 8001272:	7bfa      	ldrb	r2, [r7, #15]
 8001274:	429a      	cmp	r2, r3
 8001276:	d904      	bls.n	8001282 <DNPW_voidProcessNeighbor+0x82>
    {
      DNPW_WorstRisk = level;
 8001278:	4a07      	ldr	r2, [pc, #28]	@ (8001298 <DNPW_voidProcessNeighbor+0x98>)
 800127a:	7bfb      	ldrb	r3, [r7, #15]
 800127c:	7013      	strb	r3, [r2, #0]
 800127e:	e000      	b.n	8001282 <DNPW_voidProcessNeighbor+0x82>
    return;
 8001280:	bf00      	nop
    }
  }
}
 8001282:	3718      	adds	r7, #24
 8001284:	46bd      	mov	sp, r7
 8001286:	bd80      	pop	{r7, pc}
 8001288:	200000d9 	.word	0x200000d9
 800128c:	20000478 	.word	0x20000478
 8001290:	200000dc 	.word	0x200000dc
 8001294:	40c00000 	.word	0x40c00000
 8001298:	200000db 	.word	0x200000db

0800129c <DNPW_voidEndCycle>:
 *   - No car ahead → no reason to overtake → no warning
 *   - No oncoming car → safe to pass → no warning
 *   - Plenty of time → safe to pass → no warning
 */
void DNPW_voidEndCycle(void)
{
 800129c:	b580      	push	{r7, lr}
 800129e:	af00      	add	r7, sp, #0
  /* 3-Gate Decision */
  if (DNPW_FrontVehicle && DNPW_OppositeDetected && (DNPW_WorstRisk > RISK_SAFE))
 80012a0:	4b0e      	ldr	r3, [pc, #56]	@ (80012dc <DNPW_voidEndCycle+0x40>)
 80012a2:	781b      	ldrb	r3, [r3, #0]
 80012a4:	2b00      	cmp	r3, #0
 80012a6:	d011      	beq.n	80012cc <DNPW_voidEndCycle+0x30>
 80012a8:	4b0d      	ldr	r3, [pc, #52]	@ (80012e0 <DNPW_voidEndCycle+0x44>)
 80012aa:	781b      	ldrb	r3, [r3, #0]
 80012ac:	2b00      	cmp	r3, #0
 80012ae:	d00d      	beq.n	80012cc <DNPW_voidEndCycle+0x30>
 80012b0:	4b0c      	ldr	r3, [pc, #48]	@ (80012e4 <DNPW_voidEndCycle+0x48>)
 80012b2:	781b      	ldrb	r3, [r3, #0]
 80012b4:	2b00      	cmp	r3, #0
 80012b6:	d009      	beq.n	80012cc <DNPW_voidEndCycle+0x30>
  {
    /* Update flag for DSRC broadcast */
    DNPW_CurrentFlag = (uint8_t)DNPW_WorstRisk;
 80012b8:	4b0a      	ldr	r3, [pc, #40]	@ (80012e4 <DNPW_voidEndCycle+0x48>)
 80012ba:	781a      	ldrb	r2, [r3, #0]
 80012bc:	4b0a      	ldr	r3, [pc, #40]	@ (80012e8 <DNPW_voidEndCycle+0x4c>)
 80012be:	701a      	strb	r2, [r3, #0]

    /* Activate alert */
    DNPW_ActivateAlert(DNPW_WorstRisk);
 80012c0:	4b08      	ldr	r3, [pc, #32]	@ (80012e4 <DNPW_voidEndCycle+0x48>)
 80012c2:	781b      	ldrb	r3, [r3, #0]
 80012c4:	4618      	mov	r0, r3
 80012c6:	f000 f81b 	bl	8001300 <DNPW_ActivateAlert>
 80012ca:	e005      	b.n	80012d8 <DNPW_voidEndCycle+0x3c>
  }
  else
  {
    /* All clear — safe to pass or no overtaking scenario */
    DNPW_CurrentFlag = 0;
 80012cc:	4b06      	ldr	r3, [pc, #24]	@ (80012e8 <DNPW_voidEndCycle+0x4c>)
 80012ce:	2200      	movs	r2, #0
 80012d0:	701a      	strb	r2, [r3, #0]
    DNPW_DeactivateAlert();
 80012d2:	f000 f81f 	bl	8001314 <DNPW_DeactivateAlert>
  }
}
 80012d6:	bf00      	nop
 80012d8:	bf00      	nop
 80012da:	bd80      	pop	{r7, pc}
 80012dc:	200000da 	.word	0x200000da
 80012e0:	200000d9 	.word	0x200000d9
 80012e4:	200000db 	.word	0x200000db
 80012e8:	200000d8 	.word	0x200000d8

080012ec <DNPW_u8GetFlag>:
  DNPW_voidEndCycle();
}

/* ============ Public Getter ============ */
uint8_t DNPW_u8GetFlag(void)
{
 80012ec:	b480      	push	{r7}
 80012ee:	af00      	add	r7, sp, #0
  return DNPW_CurrentFlag;
 80012f0:	4b02      	ldr	r3, [pc, #8]	@ (80012fc <DNPW_u8GetFlag+0x10>)
 80012f2:	781b      	ldrb	r3, [r3, #0]
}
 80012f4:	4618      	mov	r0, r3
 80012f6:	46bd      	mov	sp, r7
 80012f8:	bc80      	pop	{r7}
 80012fa:	4770      	bx	lr
 80012fc:	200000d8 	.word	0x200000d8

08001300 <DNPW_ActivateAlert>:

/**
 * @brief Activate DNPW alert — warn driver NOT to overtake
 */
static void DNPW_ActivateAlert(RiskLevel_t level)
{
 8001300:	b480      	push	{r7}
 8001302:	b083      	sub	sp, #12
 8001304:	af00      	add	r7, sp, #0
 8001306:	4603      	mov	r3, r0
 8001308:	71fb      	strb	r3, [r7, #7]
  else
  {
    /* BUZZER_SHORT_BEEP(); */
  }
#endif
}
 800130a:	bf00      	nop
 800130c:	370c      	adds	r7, #12
 800130e:	46bd      	mov	sp, r7
 8001310:	bc80      	pop	{r7}
 8001312:	4770      	bx	lr

08001314 <DNPW_DeactivateAlert>:

/**
 * @brief Deactivate DNPW alert — safe to pass
 */
static void DNPW_DeactivateAlert(void)
{
 8001314:	b480      	push	{r7}
 8001316:	af00      	add	r7, sp, #0
#endif

#if DNPW_ENABLE_BUZZER
  /* BUZZER_OFF(); */
#endif
}
 8001318:	bf00      	nop
 800131a:	46bd      	mov	sp, r7
 800131c:	bc80      	pop	{r7}
 800131e:	4770      	bx	lr

08001320 <calc_checksum>:

// ============================================================
// Private - Checksum
// ============================================================
static uint8_t calc_checksum(uint8_t *data, uint8_t len)
{
 8001320:	b480      	push	{r7}
 8001322:	b085      	sub	sp, #20
 8001324:	af00      	add	r7, sp, #0
 8001326:	6078      	str	r0, [r7, #4]
 8001328:	460b      	mov	r3, r1
 800132a:	70fb      	strb	r3, [r7, #3]
  uint8_t sum = 0;
 800132c:	2300      	movs	r3, #0
 800132e:	73fb      	strb	r3, [r7, #15]
  for (uint8_t i = 0; i < len; i++)
 8001330:	2300      	movs	r3, #0
 8001332:	73bb      	strb	r3, [r7, #14]
 8001334:	e009      	b.n	800134a <calc_checksum+0x2a>
  {
    sum ^= data[i];
 8001336:	7bbb      	ldrb	r3, [r7, #14]
 8001338:	687a      	ldr	r2, [r7, #4]
 800133a:	4413      	add	r3, r2
 800133c:	781a      	ldrb	r2, [r3, #0]
 800133e:	7bfb      	ldrb	r3, [r7, #15]
 8001340:	4053      	eors	r3, r2
 8001342:	73fb      	strb	r3, [r7, #15]
  for (uint8_t i = 0; i < len; i++)
 8001344:	7bbb      	ldrb	r3, [r7, #14]
 8001346:	3301      	adds	r3, #1
 8001348:	73bb      	strb	r3, [r7, #14]
 800134a:	7bba      	ldrb	r2, [r7, #14]
 800134c:	78fb      	ldrb	r3, [r7, #3]
 800134e:	429a      	cmp	r2, r3
 8001350:	d3f1      	bcc.n	8001336 <calc_checksum+0x16>
  }
  return sum;
 8001352:	7bfb      	ldrb	r3, [r7, #15]
}
 8001354:	4618      	mov	r0, r3
 8001356:	3714      	adds	r7, #20
 8001358:	46bd      	mov	sp, r7
 800135a:	bc80      	pop	{r7}
 800135c:	4770      	bx	lr
	...

08001360 <queue_push>:

// ============================================================
// Private - Queue
// ============================================================
static void queue_push(Neighbor *n)
{
 8001360:	b4b0      	push	{r4, r5, r7}
 8001362:	b085      	sub	sp, #20
 8001364:	af00      	add	r7, sp, #0
 8001366:	6078      	str	r0, [r7, #4]
  uint8_t next = (queue_tail + 1) % QUEUE_SIZE;
 8001368:	4b18      	ldr	r3, [pc, #96]	@ (80013cc <queue_push+0x6c>)
 800136a:	781b      	ldrb	r3, [r3, #0]
 800136c:	b2db      	uxtb	r3, r3
 800136e:	1c5a      	adds	r2, r3, #1
 8001370:	4b17      	ldr	r3, [pc, #92]	@ (80013d0 <queue_push+0x70>)
 8001372:	fb83 1302 	smull	r1, r3, r3, r2
 8001376:	1099      	asrs	r1, r3, #2
 8001378:	17d3      	asrs	r3, r2, #31
 800137a:	1ac9      	subs	r1, r1, r3
 800137c:	460b      	mov	r3, r1
 800137e:	009b      	lsls	r3, r3, #2
 8001380:	440b      	add	r3, r1
 8001382:	005b      	lsls	r3, r3, #1
 8001384:	1ad1      	subs	r1, r2, r3
 8001386:	460b      	mov	r3, r1
 8001388:	73fb      	strb	r3, [r7, #15]
  if (next != queue_head) // not full
 800138a:	4b12      	ldr	r3, [pc, #72]	@ (80013d4 <queue_push+0x74>)
 800138c:	781b      	ldrb	r3, [r3, #0]
 800138e:	b2db      	uxtb	r3, r3
 8001390:	7bfa      	ldrb	r2, [r7, #15]
 8001392:	429a      	cmp	r2, r3
 8001394:	d015      	beq.n	80013c2 <queue_push+0x62>
  {
    rx_queue[queue_tail] = *n;
 8001396:	4b0d      	ldr	r3, [pc, #52]	@ (80013cc <queue_push+0x6c>)
 8001398:	781b      	ldrb	r3, [r3, #0]
 800139a:	b2db      	uxtb	r3, r3
 800139c:	4619      	mov	r1, r3
 800139e:	4a0e      	ldr	r2, [pc, #56]	@ (80013d8 <queue_push+0x78>)
 80013a0:	460b      	mov	r3, r1
 80013a2:	00db      	lsls	r3, r3, #3
 80013a4:	1a5b      	subs	r3, r3, r1
 80013a6:	009b      	lsls	r3, r3, #2
 80013a8:	441a      	add	r2, r3
 80013aa:	687b      	ldr	r3, [r7, #4]
 80013ac:	4614      	mov	r4, r2
 80013ae:	461d      	mov	r5, r3
 80013b0:	cd0f      	ldmia	r5!, {r0, r1, r2, r3}
 80013b2:	c40f      	stmia	r4!, {r0, r1, r2, r3}
 80013b4:	e895 0007 	ldmia.w	r5, {r0, r1, r2}
 80013b8:	e884 0007 	stmia.w	r4, {r0, r1, r2}
    queue_tail = next;
 80013bc:	4a03      	ldr	r2, [pc, #12]	@ (80013cc <queue_push+0x6c>)
 80013be:	7bfb      	ldrb	r3, [r7, #15]
 80013c0:	7013      	strb	r3, [r2, #0]
  }
}
 80013c2:	bf00      	nop
 80013c4:	3714      	adds	r7, #20
 80013c6:	46bd      	mov	sp, r7
 80013c8:	bcb0      	pop	{r4, r5, r7}
 80013ca:	4770      	bx	lr
 80013cc:	2000042d 	.word	0x2000042d
 80013d0:	66666667 	.word	0x66666667
 80013d4:	2000042c 	.word	0x2000042c
 80013d8:	20000314 	.word	0x20000314

080013dc <queue_pop>:

static uint8_t queue_pop(Neighbor *out)
{
 80013dc:	b4b0      	push	{r4, r5, r7}
 80013de:	b083      	sub	sp, #12
 80013e0:	af00      	add	r7, sp, #0
 80013e2:	6078      	str	r0, [r7, #4]
  if (queue_head == queue_tail)
 80013e4:	4b1d      	ldr	r3, [pc, #116]	@ (800145c <queue_pop+0x80>)
 80013e6:	781b      	ldrb	r3, [r3, #0]
 80013e8:	b2da      	uxtb	r2, r3
 80013ea:	4b1d      	ldr	r3, [pc, #116]	@ (8001460 <queue_pop+0x84>)
 80013ec:	781b      	ldrb	r3, [r3, #0]
 80013ee:	b2db      	uxtb	r3, r3
 80013f0:	429a      	cmp	r2, r3
 80013f2:	d107      	bne.n	8001404 <queue_pop+0x28>
  {
    // reset to zero when empty
    queue_head = 0;
 80013f4:	4b19      	ldr	r3, [pc, #100]	@ (800145c <queue_pop+0x80>)
 80013f6:	2200      	movs	r2, #0
 80013f8:	701a      	strb	r2, [r3, #0]
    queue_tail = 0;
 80013fa:	4b19      	ldr	r3, [pc, #100]	@ (8001460 <queue_pop+0x84>)
 80013fc:	2200      	movs	r2, #0
 80013fe:	701a      	strb	r2, [r3, #0]
    return 0; // empty
 8001400:	2300      	movs	r3, #0
 8001402:	e025      	b.n	8001450 <queue_pop+0x74>
  }
  *out = rx_queue[queue_head];
 8001404:	4b15      	ldr	r3, [pc, #84]	@ (800145c <queue_pop+0x80>)
 8001406:	781b      	ldrb	r3, [r3, #0]
 8001408:	b2db      	uxtb	r3, r3
 800140a:	4619      	mov	r1, r3
 800140c:	6878      	ldr	r0, [r7, #4]
 800140e:	4a15      	ldr	r2, [pc, #84]	@ (8001464 <queue_pop+0x88>)
 8001410:	460b      	mov	r3, r1
 8001412:	00db      	lsls	r3, r3, #3
 8001414:	1a5b      	subs	r3, r3, r1
 8001416:	009b      	lsls	r3, r3, #2
 8001418:	4413      	add	r3, r2
 800141a:	4604      	mov	r4, r0
 800141c:	461d      	mov	r5, r3
 800141e:	cd0f      	ldmia	r5!, {r0, r1, r2, r3}
 8001420:	c40f      	stmia	r4!, {r0, r1, r2, r3}
 8001422:	e895 0007 	ldmia.w	r5, {r0, r1, r2}
 8001426:	e884 0007 	stmia.w	r4, {r0, r1, r2}
  queue_head = (queue_head + 1) % QUEUE_SIZE;
 800142a:	4b0c      	ldr	r3, [pc, #48]	@ (800145c <queue_pop+0x80>)
 800142c:	781b      	ldrb	r3, [r3, #0]
 800142e:	b2db      	uxtb	r3, r3
 8001430:	1c5a      	adds	r2, r3, #1
 8001432:	4b0d      	ldr	r3, [pc, #52]	@ (8001468 <queue_pop+0x8c>)
 8001434:	fb83 1302 	smull	r1, r3, r3, r2
 8001438:	1099      	asrs	r1, r3, #2
 800143a:	17d3      	asrs	r3, r2, #31
 800143c:	1ac9      	subs	r1, r1, r3
 800143e:	460b      	mov	r3, r1
 8001440:	009b      	lsls	r3, r3, #2
 8001442:	440b      	add	r3, r1
 8001444:	005b      	lsls	r3, r3, #1
 8001446:	1ad1      	subs	r1, r2, r3
 8001448:	b2ca      	uxtb	r2, r1
 800144a:	4b04      	ldr	r3, [pc, #16]	@ (800145c <queue_pop+0x80>)
 800144c:	701a      	strb	r2, [r3, #0]
  return 1;
 800144e:	2301      	movs	r3, #1
}
 8001450:	4618      	mov	r0, r3
 8001452:	370c      	adds	r7, #12
 8001454:	46bd      	mov	sp, r7
 8001456:	bcb0      	pop	{r4, r5, r7}
 8001458:	4770      	bx	lr
 800145a:	bf00      	nop
 800145c:	2000042c 	.word	0x2000042c
 8001460:	2000042d 	.word	0x2000042d
 8001464:	20000314 	.word	0x20000314
 8001468:	66666667 	.word	0x66666667

0800146c <update_neighbor>:

// ============================================================
// Private - Neighbor Table
// ============================================================
static void update_neighbor(const Neighbor *msg)
{
 800146c:	b4b0      	push	{r4, r5, r7}
 800146e:	b087      	sub	sp, #28
 8001470:	af00      	add	r7, sp, #0
 8001472:	6078      	str	r0, [r7, #4]
  // if exists → update only
  for (uint8_t i = 0; i < neighbor_count; i++)
 8001474:	2300      	movs	r3, #0
 8001476:	75fb      	strb	r3, [r7, #23]
 8001478:	e01f      	b.n	80014ba <update_neighbor+0x4e>
  {
    if (neighbor_table[i].vehicle_id == msg->vehicle_id)
 800147a:	7dfa      	ldrb	r2, [r7, #23]
 800147c:	493d      	ldr	r1, [pc, #244]	@ (8001574 <update_neighbor+0x108>)
 800147e:	4613      	mov	r3, r2
 8001480:	00db      	lsls	r3, r3, #3
 8001482:	1a9b      	subs	r3, r3, r2
 8001484:	009b      	lsls	r3, r3, #2
 8001486:	440b      	add	r3, r1
 8001488:	781a      	ldrb	r2, [r3, #0]
 800148a:	687b      	ldr	r3, [r7, #4]
 800148c:	781b      	ldrb	r3, [r3, #0]
 800148e:	429a      	cmp	r2, r3
 8001490:	d110      	bne.n	80014b4 <update_neighbor+0x48>
    {
      neighbor_table[i] = *msg;
 8001492:	7dfa      	ldrb	r2, [r7, #23]
 8001494:	4937      	ldr	r1, [pc, #220]	@ (8001574 <update_neighbor+0x108>)
 8001496:	4613      	mov	r3, r2
 8001498:	00db      	lsls	r3, r3, #3
 800149a:	1a9b      	subs	r3, r3, r2
 800149c:	009b      	lsls	r3, r3, #2
 800149e:	18ca      	adds	r2, r1, r3
 80014a0:	687b      	ldr	r3, [r7, #4]
 80014a2:	4614      	mov	r4, r2
 80014a4:	461d      	mov	r5, r3
 80014a6:	cd0f      	ldmia	r5!, {r0, r1, r2, r3}
 80014a8:	c40f      	stmia	r4!, {r0, r1, r2, r3}
 80014aa:	e895 0007 	ldmia.w	r5, {r0, r1, r2}
 80014ae:	e884 0007 	stmia.w	r4, {r0, r1, r2}
      return;
 80014b2:	e05a      	b.n	800156a <update_neighbor+0xfe>
  for (uint8_t i = 0; i < neighbor_count; i++)
 80014b4:	7dfb      	ldrb	r3, [r7, #23]
 80014b6:	3301      	adds	r3, #1
 80014b8:	75fb      	strb	r3, [r7, #23]
 80014ba:	4b2f      	ldr	r3, [pc, #188]	@ (8001578 <update_neighbor+0x10c>)
 80014bc:	781b      	ldrb	r3, [r3, #0]
 80014be:	7dfa      	ldrb	r2, [r7, #23]
 80014c0:	429a      	cmp	r2, r3
 80014c2:	d3da      	bcc.n	800147a <update_neighbor+0xe>
    }
  }

  // not found → add
  if (neighbor_count < MAX_NEIGHBORS)
 80014c4:	4b2c      	ldr	r3, [pc, #176]	@ (8001578 <update_neighbor+0x10c>)
 80014c6:	781b      	ldrb	r3, [r3, #0]
 80014c8:	2b13      	cmp	r3, #19
 80014ca:	d816      	bhi.n	80014fa <update_neighbor+0x8e>
  {
    neighbor_table[neighbor_count++] = *msg;
 80014cc:	4b2a      	ldr	r3, [pc, #168]	@ (8001578 <update_neighbor+0x10c>)
 80014ce:	781b      	ldrb	r3, [r3, #0]
 80014d0:	1c5a      	adds	r2, r3, #1
 80014d2:	b2d1      	uxtb	r1, r2
 80014d4:	4a28      	ldr	r2, [pc, #160]	@ (8001578 <update_neighbor+0x10c>)
 80014d6:	7011      	strb	r1, [r2, #0]
 80014d8:	4619      	mov	r1, r3
 80014da:	4a26      	ldr	r2, [pc, #152]	@ (8001574 <update_neighbor+0x108>)
 80014dc:	460b      	mov	r3, r1
 80014de:	00db      	lsls	r3, r3, #3
 80014e0:	1a5b      	subs	r3, r3, r1
 80014e2:	009b      	lsls	r3, r3, #2
 80014e4:	441a      	add	r2, r3
 80014e6:	687b      	ldr	r3, [r7, #4]
 80014e8:	4614      	mov	r4, r2
 80014ea:	461d      	mov	r5, r3
 80014ec:	cd0f      	ldmia	r5!, {r0, r1, r2, r3}
 80014ee:	c40f      	stmia	r4!, {r0, r1, r2, r3}
 80014f0:	e895 0007 	ldmia.w	r5, {r0, r1, r2}
 80014f4:	e884 0007 	stmia.w	r4, {r0, r1, r2}
    return;
 80014f8:	e037      	b.n	800156a <update_neighbor+0xfe>
  }

  // table full → replace oldest
  uint8_t oldest_i = 0;
 80014fa:	2300      	movs	r3, #0
 80014fc:	75bb      	strb	r3, [r7, #22]
  uint32_t oldest_time = neighbor_table[0].last_update;
 80014fe:	4b1d      	ldr	r3, [pc, #116]	@ (8001574 <update_neighbor+0x108>)
 8001500:	68db      	ldr	r3, [r3, #12]
 8001502:	613b      	str	r3, [r7, #16]
  for (uint8_t i = 1; i < neighbor_count; i++)
 8001504:	2301      	movs	r3, #1
 8001506:	73fb      	strb	r3, [r7, #15]
 8001508:	e01a      	b.n	8001540 <update_neighbor+0xd4>
  {
    if (neighbor_table[i].last_update < oldest_time)
 800150a:	7bfa      	ldrb	r2, [r7, #15]
 800150c:	4919      	ldr	r1, [pc, #100]	@ (8001574 <update_neighbor+0x108>)
 800150e:	4613      	mov	r3, r2
 8001510:	00db      	lsls	r3, r3, #3
 8001512:	1a9b      	subs	r3, r3, r2
 8001514:	009b      	lsls	r3, r3, #2
 8001516:	440b      	add	r3, r1
 8001518:	330c      	adds	r3, #12
 800151a:	681b      	ldr	r3, [r3, #0]
 800151c:	693a      	ldr	r2, [r7, #16]
 800151e:	429a      	cmp	r2, r3
 8001520:	d90b      	bls.n	800153a <update_neighbor+0xce>
    {
      oldest_time = neighbor_table[i].last_update;
 8001522:	7bfa      	ldrb	r2, [r7, #15]
 8001524:	4913      	ldr	r1, [pc, #76]	@ (8001574 <update_neighbor+0x108>)
 8001526:	4613      	mov	r3, r2
 8001528:	00db      	lsls	r3, r3, #3
 800152a:	1a9b      	subs	r3, r3, r2
 800152c:	009b      	lsls	r3, r3, #2
 800152e:	440b      	add	r3, r1
 8001530:	330c      	adds	r3, #12
 8001532:	681b      	ldr	r3, [r3, #0]
 8001534:	613b      	str	r3, [r7, #16]
      oldest_i = i;
 8001536:	7bfb      	ldrb	r3, [r7, #15]
 8001538:	75bb      	strb	r3, [r7, #22]
  for (uint8_t i = 1; i < neighbor_count; i++)
 800153a:	7bfb      	ldrb	r3, [r7, #15]
 800153c:	3301      	adds	r3, #1
 800153e:	73fb      	strb	r3, [r7, #15]
 8001540:	4b0d      	ldr	r3, [pc, #52]	@ (8001578 <update_neighbor+0x10c>)
 8001542:	781b      	ldrb	r3, [r3, #0]
 8001544:	7bfa      	ldrb	r2, [r7, #15]
 8001546:	429a      	cmp	r2, r3
 8001548:	d3df      	bcc.n	800150a <update_neighbor+0x9e>
    }
  }
  neighbor_table[oldest_i] = *msg;
 800154a:	7dba      	ldrb	r2, [r7, #22]
 800154c:	4909      	ldr	r1, [pc, #36]	@ (8001574 <update_neighbor+0x108>)
 800154e:	4613      	mov	r3, r2
 8001550:	00db      	lsls	r3, r3, #3
 8001552:	1a9b      	subs	r3, r3, r2
 8001554:	009b      	lsls	r3, r3, #2
 8001556:	18ca      	adds	r2, r1, r3
 8001558:	687b      	ldr	r3, [r7, #4]
 800155a:	4614      	mov	r4, r2
 800155c:	461d      	mov	r5, r3
 800155e:	cd0f      	ldmia	r5!, {r0, r1, r2, r3}
 8001560:	c40f      	stmia	r4!, {r0, r1, r2, r3}
 8001562:	e895 0007 	ldmia.w	r5, {r0, r1, r2}
 8001566:	e884 0007 	stmia.w	r4, {r0, r1, r2}
}
 800156a:	371c      	adds	r7, #28
 800156c:	46bd      	mov	sp, r7
 800156e:	bcb0      	pop	{r4, r5, r7}
 8001570:	4770      	bx	lr
 8001572:	bf00      	nop
 8001574:	200000e0 	.word	0x200000e0
 8001578:	20000310 	.word	0x20000310

0800157c <DSRC_Init>:

// ============================================================
// Public API
// ============================================================
void DSRC_Init(void)
{
 800157c:	b580      	push	{r7, lr}
 800157e:	af00      	add	r7, sp, #0
  memset(neighbor_table, 0, sizeof(neighbor_table));
 8001580:	f44f 720c 	mov.w	r2, #560	@ 0x230
 8001584:	2100      	movs	r1, #0
 8001586:	4808      	ldr	r0, [pc, #32]	@ (80015a8 <DSRC_Init+0x2c>)
 8001588:	f001 fc29 	bl	8002dde <memset>
  neighbor_count = 0;
 800158c:	4b07      	ldr	r3, [pc, #28]	@ (80015ac <DSRC_Init+0x30>)
 800158e:	2200      	movs	r2, #0
 8001590:	701a      	strb	r2, [r3, #0]
  parse_state = WAIT_START;
 8001592:	4b07      	ldr	r3, [pc, #28]	@ (80015b0 <DSRC_Init+0x34>)
 8001594:	2200      	movs	r2, #0
 8001596:	701a      	strb	r2, [r3, #0]
  queue_head = 0;
 8001598:	4b06      	ldr	r3, [pc, #24]	@ (80015b4 <DSRC_Init+0x38>)
 800159a:	2200      	movs	r2, #0
 800159c:	701a      	strb	r2, [r3, #0]
  queue_tail = 0;
 800159e:	4b06      	ldr	r3, [pc, #24]	@ (80015b8 <DSRC_Init+0x3c>)
 80015a0:	2200      	movs	r2, #0
 80015a2:	701a      	strb	r2, [r3, #0]
}
 80015a4:	bf00      	nop
 80015a6:	bd80      	pop	{r7, pc}
 80015a8:	200000e0 	.word	0x200000e0
 80015ac:	20000310 	.word	0x20000310
 80015b0:	2000042e 	.word	0x2000042e
 80015b4:	2000042c 	.word	0x2000042c
 80015b8:	2000042d 	.word	0x2000042d

080015bc <DSRC_SendNeighbor>:

void DSRC_SendNeighbor(Neighbor *n)
{
 80015bc:	b5b0      	push	{r4, r5, r7, lr}
 80015be:	b08a      	sub	sp, #40	@ 0x28
 80015c0:	af00      	add	r7, sp, #0
 80015c2:	6078      	str	r0, [r7, #4]
  uint8_t raw[sizeof(Neighbor)];
  memcpy(raw, n, sizeof(Neighbor));
 80015c4:	687b      	ldr	r3, [r7, #4]
 80015c6:	f107 0408 	add.w	r4, r7, #8
 80015ca:	461d      	mov	r5, r3
 80015cc:	6828      	ldr	r0, [r5, #0]
 80015ce:	6869      	ldr	r1, [r5, #4]
 80015d0:	68aa      	ldr	r2, [r5, #8]
 80015d2:	68eb      	ldr	r3, [r5, #12]
 80015d4:	c40f      	stmia	r4!, {r0, r1, r2, r3}
 80015d6:	6928      	ldr	r0, [r5, #16]
 80015d8:	6969      	ldr	r1, [r5, #20]
 80015da:	69aa      	ldr	r2, [r5, #24]
 80015dc:	c407      	stmia	r4!, {r0, r1, r2}
  uint8_t chk = calc_checksum(raw, sizeof(Neighbor));
 80015de:	f107 0308 	add.w	r3, r7, #8
 80015e2:	211c      	movs	r1, #28
 80015e4:	4618      	mov	r0, r3
 80015e6:	f7ff fe9b 	bl	8001320 <calc_checksum>
 80015ea:	4603      	mov	r3, r0
 80015ec:	f887 3026 	strb.w	r3, [r7, #38]	@ 0x26

  USART_enumTransmit(&USART_1, START_BYTE);
 80015f0:	21aa      	movs	r1, #170	@ 0xaa
 80015f2:	4814      	ldr	r0, [pc, #80]	@ (8001644 <DSRC_SendNeighbor+0x88>)
 80015f4:	f001 fa72 	bl	8002adc <USART_enumTransmit>
  for (uint8_t i = 0; i < sizeof(Neighbor); i++)
 80015f8:	2300      	movs	r3, #0
 80015fa:	f887 3027 	strb.w	r3, [r7, #39]	@ 0x27
 80015fe:	e00e      	b.n	800161e <DSRC_SendNeighbor+0x62>
  {
    USART_enumTransmit(&USART_1, raw[i]);
 8001600:	f897 3027 	ldrb.w	r3, [r7, #39]	@ 0x27
 8001604:	3328      	adds	r3, #40	@ 0x28
 8001606:	443b      	add	r3, r7
 8001608:	f813 3c20 	ldrb.w	r3, [r3, #-32]
 800160c:	4619      	mov	r1, r3
 800160e:	480d      	ldr	r0, [pc, #52]	@ (8001644 <DSRC_SendNeighbor+0x88>)
 8001610:	f001 fa64 	bl	8002adc <USART_enumTransmit>
  for (uint8_t i = 0; i < sizeof(Neighbor); i++)
 8001614:	f897 3027 	ldrb.w	r3, [r7, #39]	@ 0x27
 8001618:	3301      	adds	r3, #1
 800161a:	f887 3027 	strb.w	r3, [r7, #39]	@ 0x27
 800161e:	f897 3027 	ldrb.w	r3, [r7, #39]	@ 0x27
 8001622:	2b1b      	cmp	r3, #27
 8001624:	d9ec      	bls.n	8001600 <DSRC_SendNeighbor+0x44>
  }
  USART_enumTransmit(&USART_1, chk);
 8001626:	f897 3026 	ldrb.w	r3, [r7, #38]	@ 0x26
 800162a:	4619      	mov	r1, r3
 800162c:	4805      	ldr	r0, [pc, #20]	@ (8001644 <DSRC_SendNeighbor+0x88>)
 800162e:	f001 fa55 	bl	8002adc <USART_enumTransmit>
  USART_enumTransmit(&USART_1, END_BYTE);
 8001632:	2155      	movs	r1, #85	@ 0x55
 8001634:	4803      	ldr	r0, [pc, #12]	@ (8001644 <DSRC_SendNeighbor+0x88>)
 8001636:	f001 fa51 	bl	8002adc <USART_enumTransmit>
}
 800163a:	bf00      	nop
 800163c:	3728      	adds	r7, #40	@ 0x28
 800163e:	46bd      	mov	sp, r7
 8001640:	bdb0      	pop	{r4, r5, r7, pc}
 8001642:	bf00      	nop
 8001644:	20000020 	.word	0x20000020

08001648 <DSRC_Update>:

// call this in main loop to process received packets
void DSRC_Update(void)
{
 8001648:	b580      	push	{r7, lr}
 800164a:	b088      	sub	sp, #32
 800164c:	af00      	add	r7, sp, #0
  Neighbor received;
  while (queue_pop(&received))
 800164e:	e003      	b.n	8001658 <DSRC_Update+0x10>
  {
    update_neighbor(&received);
 8001650:	1d3b      	adds	r3, r7, #4
 8001652:	4618      	mov	r0, r3
 8001654:	f7ff ff0a 	bl	800146c <update_neighbor>
  while (queue_pop(&received))
 8001658:	1d3b      	adds	r3, r7, #4
 800165a:	4618      	mov	r0, r3
 800165c:	f7ff febe 	bl	80013dc <queue_pop>
 8001660:	4603      	mov	r3, r0
 8001662:	2b00      	cmp	r3, #0
 8001664:	d1f4      	bne.n	8001650 <DSRC_Update+0x8>
  }
}
 8001666:	bf00      	nop
 8001668:	bf00      	nop
 800166a:	3720      	adds	r7, #32
 800166c:	46bd      	mov	sp, r7
 800166e:	bd80      	pop	{r7, pc}

08001670 <DSRC_GetCount>:
    }
  }
}

uint8_t DSRC_GetCount(void)
{
 8001670:	b480      	push	{r7}
 8001672:	af00      	add	r7, sp, #0
  return neighbor_count;
 8001674:	4b02      	ldr	r3, [pc, #8]	@ (8001680 <DSRC_GetCount+0x10>)
 8001676:	781b      	ldrb	r3, [r3, #0]
}
 8001678:	4618      	mov	r0, r3
 800167a:	46bd      	mov	sp, r7
 800167c:	bc80      	pop	{r7}
 800167e:	4770      	bx	lr
 8001680:	20000310 	.word	0x20000310

08001684 <DSRC_GetTable>:
      // etc...
  }
*/

Neighbor *DSRC_GetTable(void)
{
 8001684:	b480      	push	{r7}
 8001686:	af00      	add	r7, sp, #0
  return neighbor_table;
 8001688:	4b02      	ldr	r3, [pc, #8]	@ (8001694 <DSRC_GetTable+0x10>)
}
 800168a:	4618      	mov	r0, r3
 800168c:	46bd      	mov	sp, r7
 800168e:	bc80      	pop	{r7}
 8001690:	4770      	bx	lr
 8001692:	bf00      	nop
 8001694:	200000e0 	.word	0x200000e0

08001698 <DSRC_RxCallback>:

// call this from USART_RXCMP interrupt
void DSRC_RxCallback(uint8_t byte)
{
 8001698:	b5b0      	push	{r4, r5, r7, lr}
 800169a:	b08a      	sub	sp, #40	@ 0x28
 800169c:	af00      	add	r7, sp, #0
 800169e:	4603      	mov	r3, r0
 80016a0:	71fb      	strb	r3, [r7, #7]
  switch (parse_state)
 80016a2:	4b2e      	ldr	r3, [pc, #184]	@ (800175c <DSRC_RxCallback+0xc4>)
 80016a4:	781b      	ldrb	r3, [r3, #0]
 80016a6:	2b03      	cmp	r3, #3
 80016a8:	d853      	bhi.n	8001752 <DSRC_RxCallback+0xba>
 80016aa:	a201      	add	r2, pc, #4	@ (adr r2, 80016b0 <DSRC_RxCallback+0x18>)
 80016ac:	f852 f023 	ldr.w	pc, [r2, r3, lsl #2]
 80016b0:	080016c1 	.word	0x080016c1
 80016b4:	080016d5 	.word	0x080016d5
 80016b8:	080016f9 	.word	0x080016f9
 80016bc:	08001707 	.word	0x08001707
  {
  case WAIT_START:
    if (byte == START_BYTE)
 80016c0:	79fb      	ldrb	r3, [r7, #7]
 80016c2:	2baa      	cmp	r3, #170	@ 0xaa
 80016c4:	d142      	bne.n	800174c <DSRC_RxCallback+0xb4>
    {
      rx_idx = 0;
 80016c6:	4b26      	ldr	r3, [pc, #152]	@ (8001760 <DSRC_RxCallback+0xc8>)
 80016c8:	2200      	movs	r2, #0
 80016ca:	701a      	strb	r2, [r3, #0]
      parse_state = READ_DATA;
 80016cc:	4b23      	ldr	r3, [pc, #140]	@ (800175c <DSRC_RxCallback+0xc4>)
 80016ce:	2201      	movs	r2, #1
 80016d0:	701a      	strb	r2, [r3, #0]
    }
    break;
 80016d2:	e03b      	b.n	800174c <DSRC_RxCallback+0xb4>

  case READ_DATA:
    rx_buf[rx_idx++] = byte;
 80016d4:	4b22      	ldr	r3, [pc, #136]	@ (8001760 <DSRC_RxCallback+0xc8>)
 80016d6:	781b      	ldrb	r3, [r3, #0]
 80016d8:	1c5a      	adds	r2, r3, #1
 80016da:	b2d1      	uxtb	r1, r2
 80016dc:	4a20      	ldr	r2, [pc, #128]	@ (8001760 <DSRC_RxCallback+0xc8>)
 80016de:	7011      	strb	r1, [r2, #0]
 80016e0:	4619      	mov	r1, r3
 80016e2:	4a20      	ldr	r2, [pc, #128]	@ (8001764 <DSRC_RxCallback+0xcc>)
 80016e4:	79fb      	ldrb	r3, [r7, #7]
 80016e6:	5453      	strb	r3, [r2, r1]
    if (rx_idx >= sizeof(Neighbor))
 80016e8:	4b1d      	ldr	r3, [pc, #116]	@ (8001760 <DSRC_RxCallback+0xc8>)
 80016ea:	781b      	ldrb	r3, [r3, #0]
 80016ec:	2b1b      	cmp	r3, #27
 80016ee:	d92f      	bls.n	8001750 <DSRC_RxCallback+0xb8>
    {
      parse_state = READ_CHECKSUM;
 80016f0:	4b1a      	ldr	r3, [pc, #104]	@ (800175c <DSRC_RxCallback+0xc4>)
 80016f2:	2202      	movs	r2, #2
 80016f4:	701a      	strb	r2, [r3, #0]
    }
    break;
 80016f6:	e02b      	b.n	8001750 <DSRC_RxCallback+0xb8>

  case READ_CHECKSUM:
    rx_checksum = byte;
 80016f8:	4a1b      	ldr	r2, [pc, #108]	@ (8001768 <DSRC_RxCallback+0xd0>)
 80016fa:	79fb      	ldrb	r3, [r7, #7]
 80016fc:	7013      	strb	r3, [r2, #0]
    parse_state = READ_END;
 80016fe:	4b17      	ldr	r3, [pc, #92]	@ (800175c <DSRC_RxCallback+0xc4>)
 8001700:	2203      	movs	r2, #3
 8001702:	701a      	strb	r2, [r3, #0]
    break;
 8001704:	e025      	b.n	8001752 <DSRC_RxCallback+0xba>

  case READ_END:
    if (byte == END_BYTE)
 8001706:	79fb      	ldrb	r3, [r7, #7]
 8001708:	2b55      	cmp	r3, #85	@ 0x55
 800170a:	d11b      	bne.n	8001744 <DSRC_RxCallback+0xac>
    {
      uint8_t expected = calc_checksum(rx_buf, sizeof(Neighbor));
 800170c:	211c      	movs	r1, #28
 800170e:	4815      	ldr	r0, [pc, #84]	@ (8001764 <DSRC_RxCallback+0xcc>)
 8001710:	f7ff fe06 	bl	8001320 <calc_checksum>
 8001714:	4603      	mov	r3, r0
 8001716:	f887 3027 	strb.w	r3, [r7, #39]	@ 0x27
      if (expected == rx_checksum)
 800171a:	4b13      	ldr	r3, [pc, #76]	@ (8001768 <DSRC_RxCallback+0xd0>)
 800171c:	781b      	ldrb	r3, [r3, #0]
 800171e:	f897 2027 	ldrb.w	r2, [r7, #39]	@ 0x27
 8001722:	429a      	cmp	r2, r3
 8001724:	d10e      	bne.n	8001744 <DSRC_RxCallback+0xac>
      {
        Neighbor n;
        memcpy(&n, rx_buf, sizeof(Neighbor));
 8001726:	4b0f      	ldr	r3, [pc, #60]	@ (8001764 <DSRC_RxCallback+0xcc>)
 8001728:	f107 0408 	add.w	r4, r7, #8
 800172c:	461d      	mov	r5, r3
 800172e:	cd0f      	ldmia	r5!, {r0, r1, r2, r3}
 8001730:	c40f      	stmia	r4!, {r0, r1, r2, r3}
 8001732:	e895 0007 	ldmia.w	r5, {r0, r1, r2}
 8001736:	e884 0007 	stmia.w	r4, {r0, r1, r2}
        // or you can make casting if you prefer for example : queue_push((Neighbor*)rx_buf);
        queue_push(&n);
 800173a:	f107 0308 	add.w	r3, r7, #8
 800173e:	4618      	mov	r0, r3
 8001740:	f7ff fe0e 	bl	8001360 <queue_push>
      }
    }
    parse_state = WAIT_START;
 8001744:	4b05      	ldr	r3, [pc, #20]	@ (800175c <DSRC_RxCallback+0xc4>)
 8001746:	2200      	movs	r2, #0
 8001748:	701a      	strb	r2, [r3, #0]
    break;
 800174a:	e002      	b.n	8001752 <DSRC_RxCallback+0xba>
    break;
 800174c:	bf00      	nop
 800174e:	e000      	b.n	8001752 <DSRC_RxCallback+0xba>
    break;
 8001750:	bf00      	nop
  }
}
 8001752:	bf00      	nop
 8001754:	3728      	adds	r7, #40	@ 0x28
 8001756:	46bd      	mov	sp, r7
 8001758:	bdb0      	pop	{r4, r5, r7, pc}
 800175a:	bf00      	nop
 800175c:	2000042e 	.word	0x2000042e
 8001760:	2000044c 	.word	0x2000044c
 8001764:	20000430 	.word	0x20000430
 8001768:	2000044d 	.word	0x2000044d

0800176c <EEBL_voidInit>:
static uint8_t     EEBL_BrakingDetected = 0;
static RiskLevel_t EEBL_WorstLevel      = RISK_SAFE;

/* ============ Init ============ */
void EEBL_voidInit(void)
{
 800176c:	b480      	push	{r7}
 800176e:	af00      	add	r7, sp, #0
  EEBL_PrevSpeed       = 0.0f;
 8001770:	4b06      	ldr	r3, [pc, #24]	@ (800178c <EEBL_voidInit+0x20>)
 8001772:	f04f 0200 	mov.w	r2, #0
 8001776:	601a      	str	r2, [r3, #0]
  EEBL_BrakingDetected = 0;
 8001778:	4b05      	ldr	r3, [pc, #20]	@ (8001790 <EEBL_voidInit+0x24>)
 800177a:	2200      	movs	r2, #0
 800177c:	701a      	strb	r2, [r3, #0]
  EEBL_WorstLevel      = RISK_SAFE;
 800177e:	4b05      	ldr	r3, [pc, #20]	@ (8001794 <EEBL_voidInit+0x28>)
 8001780:	2200      	movs	r2, #0
 8001782:	701a      	strb	r2, [r3, #0]
}
 8001784:	bf00      	nop
 8001786:	46bd      	mov	sp, r7
 8001788:	bc80      	pop	{r7}
 800178a:	4770      	bx	lr
 800178c:	20000450 	.word	0x20000450
 8001790:	20000454 	.word	0x20000454
 8001794:	20000455 	.word	0x20000455

08001798 <EEBL_voidBeginCycle>:
 * @brief Begin a new EEBL processing cycle
 *        Checks braking gate and resets accumulators.
 *        If not braking suddenly, ProcessNeighbor will skip all neighbors.
 */
void EEBL_voidBeginCycle(void)
{
 8001798:	b580      	push	{r7, lr}
 800179a:	b082      	sub	sp, #8
 800179c:	af00      	add	r7, sp, #0
  /* Detect sudden braking */
  float decel = Host_Speed - EEBL_PrevSpeed;
 800179e:	4b10      	ldr	r3, [pc, #64]	@ (80017e0 <EEBL_voidBeginCycle+0x48>)
 80017a0:	681b      	ldr	r3, [r3, #0]
 80017a2:	4a10      	ldr	r2, [pc, #64]	@ (80017e4 <EEBL_voidBeginCycle+0x4c>)
 80017a4:	6812      	ldr	r2, [r2, #0]
 80017a6:	4611      	mov	r1, r2
 80017a8:	4618      	mov	r0, r3
 80017aa:	f7ff f91f 	bl	80009ec <__aeabi_fsub>
 80017ae:	4603      	mov	r3, r0
 80017b0:	607b      	str	r3, [r7, #4]
  EEBL_BrakingDetected = (decel <= EEBL_DECEL_THRESHOLD) ? 1U : 0U;
 80017b2:	490d      	ldr	r1, [pc, #52]	@ (80017e8 <EEBL_voidBeginCycle+0x50>)
 80017b4:	6878      	ldr	r0, [r7, #4]
 80017b6:	f7ff fbcb 	bl	8000f50 <__aeabi_fcmple>
 80017ba:	4603      	mov	r3, r0
 80017bc:	2b00      	cmp	r3, #0
 80017be:	d001      	beq.n	80017c4 <EEBL_voidBeginCycle+0x2c>
 80017c0:	2201      	movs	r2, #1
 80017c2:	e000      	b.n	80017c6 <EEBL_voidBeginCycle+0x2e>
 80017c4:	2200      	movs	r2, #0
 80017c6:	4b09      	ldr	r3, [pc, #36]	@ (80017ec <EEBL_voidBeginCycle+0x54>)
 80017c8:	701a      	strb	r2, [r3, #0]

  /* Save current speed for next cycle */
  EEBL_PrevSpeed = Host_Speed;
 80017ca:	4b05      	ldr	r3, [pc, #20]	@ (80017e0 <EEBL_voidBeginCycle+0x48>)
 80017cc:	681b      	ldr	r3, [r3, #0]
 80017ce:	4a05      	ldr	r2, [pc, #20]	@ (80017e4 <EEBL_voidBeginCycle+0x4c>)
 80017d0:	6013      	str	r3, [r2, #0]

  /* Reset worst level */
  EEBL_WorstLevel = RISK_SAFE;
 80017d2:	4b07      	ldr	r3, [pc, #28]	@ (80017f0 <EEBL_voidBeginCycle+0x58>)
 80017d4:	2200      	movs	r2, #0
 80017d6:	701a      	strb	r2, [r3, #0]
}
 80017d8:	bf00      	nop
 80017da:	3708      	adds	r7, #8
 80017dc:	46bd      	mov	sp, r7
 80017de:	bd80      	pop	{r7, pc}
 80017e0:	20000478 	.word	0x20000478
 80017e4:	20000450 	.word	0x20000450
 80017e8:	c0800000 	.word	0xc0800000
 80017ec:	20000454 	.word	0x20000454
 80017f0:	20000455 	.word	0x20000455

080017f4 <EEBL_voidProcessNeighbor>:
 *   - Not braking (gate from BeginCycle)
 *   - Rear distance out of range
 *   - Neighbor is not closing in
 */
void EEBL_voidProcessNeighbor(const Neighbor *n, float rear_distance, Direction_t dir)
{
 80017f4:	b580      	push	{r7, lr}
 80017f6:	b088      	sub	sp, #32
 80017f8:	af00      	add	r7, sp, #0
 80017fa:	60f8      	str	r0, [r7, #12]
 80017fc:	60b9      	str	r1, [r7, #8]
 80017fe:	4613      	mov	r3, r2
 8001800:	71fb      	strb	r3, [r7, #7]
  /* Only care about same-direction vehicles */
  if (dir != DIR_SAME)
 8001802:	79fb      	ldrb	r3, [r7, #7]
 8001804:	2b00      	cmp	r3, #0
 8001806:	d13a      	bne.n	800187e <EEBL_voidProcessNeighbor+0x8a>
  {
    return;
  }

  /* Gate: skip if not braking */
  if (!EEBL_BrakingDetected)
 8001808:	4b22      	ldr	r3, [pc, #136]	@ (8001894 <EEBL_voidProcessNeighbor+0xa0>)
 800180a:	781b      	ldrb	r3, [r3, #0]
 800180c:	2b00      	cmp	r3, #0
 800180e:	d038      	beq.n	8001882 <EEBL_voidProcessNeighbor+0x8e>
  {
    return;
  }

  /* Gate: skip if no vehicle behind or out of range */
  if (rear_distance <= 0.0f || rear_distance > EEBL_MAX_DETECTION_RANGE)
 8001810:	f04f 0100 	mov.w	r1, #0
 8001814:	68b8      	ldr	r0, [r7, #8]
 8001816:	f7ff fb9b 	bl	8000f50 <__aeabi_fcmple>
 800181a:	4603      	mov	r3, r0
 800181c:	2b00      	cmp	r3, #0
 800181e:	d132      	bne.n	8001886 <EEBL_voidProcessNeighbor+0x92>
 8001820:	491d      	ldr	r1, [pc, #116]	@ (8001898 <EEBL_voidProcessNeighbor+0xa4>)
 8001822:	68b8      	ldr	r0, [r7, #8]
 8001824:	f7ff fba8 	bl	8000f78 <__aeabi_fcmpgt>
 8001828:	4603      	mov	r3, r0
 800182a:	2b00      	cmp	r3, #0
 800182c:	d12b      	bne.n	8001886 <EEBL_voidProcessNeighbor+0x92>

  /*
   * Relative speed: other vehicle is faster → closing in on us
   * (We are braking, they haven't yet)
   */
  float rel_speed = n->speed - Host_Speed;
 800182e:	68fb      	ldr	r3, [r7, #12]
 8001830:	685b      	ldr	r3, [r3, #4]
 8001832:	4a1a      	ldr	r2, [pc, #104]	@ (800189c <EEBL_voidProcessNeighbor+0xa8>)
 8001834:	6812      	ldr	r2, [r2, #0]
 8001836:	4611      	mov	r1, r2
 8001838:	4618      	mov	r0, r3
 800183a:	f7ff f8d7 	bl	80009ec <__aeabi_fsub>
 800183e:	4603      	mov	r3, r0
 8001840:	61fb      	str	r3, [r7, #28]

  if (rel_speed <= 0.0f)
 8001842:	f04f 0100 	mov.w	r1, #0
 8001846:	69f8      	ldr	r0, [r7, #28]
 8001848:	f7ff fb82 	bl	8000f50 <__aeabi_fcmple>
 800184c:	4603      	mov	r3, r0
 800184e:	2b00      	cmp	r3, #0
 8001850:	d11b      	bne.n	800188a <EEBL_voidProcessNeighbor+0x96>
  {
    /* Other vehicle is slower or same speed → no rear collision risk */
    return;
  }

  float ttc = SafetyEngine_CalcTTC(rear_distance, rel_speed);
 8001852:	69f9      	ldr	r1, [r7, #28]
 8001854:	68b8      	ldr	r0, [r7, #8]
 8001856:	f000 fe51 	bl	80024fc <SafetyEngine_CalcTTC>
 800185a:	61b8      	str	r0, [r7, #24]
  RiskLevel_t level = SafetyEngine_EvaluateRisk(ttc, EEBL_WARNING_TTC, EEBL_CRITICAL_TTC);
 800185c:	f04f 4280 	mov.w	r2, #1073741824	@ 0x40000000
 8001860:	490f      	ldr	r1, [pc, #60]	@ (80018a0 <EEBL_voidProcessNeighbor+0xac>)
 8001862:	69b8      	ldr	r0, [r7, #24]
 8001864:	f000 fe64 	bl	8002530 <SafetyEngine_EvaluateRisk>
 8001868:	4603      	mov	r3, r0
 800186a:	75fb      	strb	r3, [r7, #23]

  if (level > EEBL_WorstLevel)
 800186c:	4b0d      	ldr	r3, [pc, #52]	@ (80018a4 <EEBL_voidProcessNeighbor+0xb0>)
 800186e:	781b      	ldrb	r3, [r3, #0]
 8001870:	7dfa      	ldrb	r2, [r7, #23]
 8001872:	429a      	cmp	r2, r3
 8001874:	d90a      	bls.n	800188c <EEBL_voidProcessNeighbor+0x98>
  {
    EEBL_WorstLevel = level;
 8001876:	4a0b      	ldr	r2, [pc, #44]	@ (80018a4 <EEBL_voidProcessNeighbor+0xb0>)
 8001878:	7dfb      	ldrb	r3, [r7, #23]
 800187a:	7013      	strb	r3, [r2, #0]
 800187c:	e006      	b.n	800188c <EEBL_voidProcessNeighbor+0x98>
    return;
 800187e:	bf00      	nop
 8001880:	e004      	b.n	800188c <EEBL_voidProcessNeighbor+0x98>
    return;
 8001882:	bf00      	nop
 8001884:	e002      	b.n	800188c <EEBL_voidProcessNeighbor+0x98>
    return;
 8001886:	bf00      	nop
 8001888:	e000      	b.n	800188c <EEBL_voidProcessNeighbor+0x98>
    return;
 800188a:	bf00      	nop
  }
}
 800188c:	3720      	adds	r7, #32
 800188e:	46bd      	mov	sp, r7
 8001890:	bd80      	pop	{r7, pc}
 8001892:	bf00      	nop
 8001894:	20000454 	.word	0x20000454
 8001898:	43c80000 	.word	0x43c80000
 800189c:	20000478 	.word	0x20000478
 80018a0:	40400000 	.word	0x40400000
 80018a4:	20000455 	.word	0x20000455

080018a8 <EEBL_voidEndCycle>:

/**
 * @brief End cycle — activate/deactivate alerts based on results
 */
void EEBL_voidEndCycle(void)
{
 80018a8:	b580      	push	{r7, lr}
 80018aa:	af00      	add	r7, sp, #0
  if (EEBL_WorstLevel > RISK_SAFE)
 80018ac:	4b06      	ldr	r3, [pc, #24]	@ (80018c8 <EEBL_voidEndCycle+0x20>)
 80018ae:	781b      	ldrb	r3, [r3, #0]
 80018b0:	2b00      	cmp	r3, #0
 80018b2:	d005      	beq.n	80018c0 <EEBL_voidEndCycle+0x18>
  {
    EEBL_ActivateAlert(EEBL_WorstLevel);
 80018b4:	4b04      	ldr	r3, [pc, #16]	@ (80018c8 <EEBL_voidEndCycle+0x20>)
 80018b6:	781b      	ldrb	r3, [r3, #0]
 80018b8:	4618      	mov	r0, r3
 80018ba:	f000 f807 	bl	80018cc <EEBL_ActivateAlert>
  }
  else
  {
    EEBL_DeactivateAlert();
  }
}
 80018be:	e001      	b.n	80018c4 <EEBL_voidEndCycle+0x1c>
    EEBL_DeactivateAlert();
 80018c0:	f000 f80e 	bl	80018e0 <EEBL_DeactivateAlert>
}
 80018c4:	bf00      	nop
 80018c6:	bd80      	pop	{r7, pc}
 80018c8:	20000455 	.word	0x20000455

080018cc <EEBL_ActivateAlert>:

/**
 * @brief Activate rear alerts (LED, Buzzer) based on risk level
 */
static void EEBL_ActivateAlert(RiskLevel_t level)
{
 80018cc:	b480      	push	{r7}
 80018ce:	b083      	sub	sp, #12
 80018d0:	af00      	add	r7, sp, #0
 80018d2:	4603      	mov	r3, r0
 80018d4:	71fb      	strb	r3, [r7, #7]
  if (level == RISK_CRITICAL)
  {
    /* BUZZER_ON(); */
  }
#endif
}
 80018d6:	bf00      	nop
 80018d8:	370c      	adds	r7, #12
 80018da:	46bd      	mov	sp, r7
 80018dc:	bc80      	pop	{r7}
 80018de:	4770      	bx	lr

080018e0 <EEBL_DeactivateAlert>:

/**
 * @brief Deactivate all EEBL alerts
 */
static void EEBL_DeactivateAlert(void)
{
 80018e0:	b480      	push	{r7}
 80018e2:	af00      	add	r7, sp, #0
#endif

#if EEBL_ENABLE_BUZZER
  /* BUZZER_OFF(); */
#endif
 80018e4:	bf00      	nop
 80018e6:	46bd      	mov	sp, r7
 80018e8:	bc80      	pop	{r7}
 80018ea:	4770      	bx	lr

080018ec <FCW_voidInit>:
static RiskLevel_t FCW_LocalWorst = RISK_SAFE;
static RiskLevel_t FCW_AlertLevel = RISK_SAFE;

/* ============ Init ============ */
void FCW_voidInit(void)
{
 80018ec:	b480      	push	{r7}
 80018ee:	af00      	add	r7, sp, #0
  FCW_CurrentFlag = 0;
 80018f0:	4b06      	ldr	r3, [pc, #24]	@ (800190c <FCW_voidInit+0x20>)
 80018f2:	2200      	movs	r2, #0
 80018f4:	701a      	strb	r2, [r3, #0]
  FCW_LocalWorst  = RISK_SAFE;
 80018f6:	4b06      	ldr	r3, [pc, #24]	@ (8001910 <FCW_voidInit+0x24>)
 80018f8:	2200      	movs	r2, #0
 80018fa:	701a      	strb	r2, [r3, #0]
  FCW_AlertLevel  = RISK_SAFE;
 80018fc:	4b05      	ldr	r3, [pc, #20]	@ (8001914 <FCW_voidInit+0x28>)
 80018fe:	2200      	movs	r2, #0
 8001900:	701a      	strb	r2, [r3, #0]
}
 8001902:	bf00      	nop
 8001904:	46bd      	mov	sp, r7
 8001906:	bc80      	pop	{r7}
 8001908:	4770      	bx	lr
 800190a:	bf00      	nop
 800190c:	20000456 	.word	0x20000456
 8001910:	20000457 	.word	0x20000457
 8001914:	20000458 	.word	0x20000458

08001918 <FCW_voidBeginCycle>:

/**
 * @brief Begin a new processing cycle — reset accumulators
 */
void FCW_voidBeginCycle(void)
{
 8001918:	b480      	push	{r7}
 800191a:	af00      	add	r7, sp, #0
  FCW_LocalWorst = RISK_SAFE;
 800191c:	4b04      	ldr	r3, [pc, #16]	@ (8001930 <FCW_voidBeginCycle+0x18>)
 800191e:	2200      	movs	r2, #0
 8001920:	701a      	strb	r2, [r3, #0]
  FCW_AlertLevel = RISK_SAFE;
 8001922:	4b04      	ldr	r3, [pc, #16]	@ (8001934 <FCW_voidBeginCycle+0x1c>)
 8001924:	2200      	movs	r2, #0
 8001926:	701a      	strb	r2, [r3, #0]
}
 8001928:	bf00      	nop
 800192a:	46bd      	mov	sp, r7
 800192c:	bc80      	pop	{r7}
 800192e:	4770      	bx	lr
 8001930:	20000457 	.word	0x20000457
 8001934:	20000458 	.word	0x20000458

08001938 <FCW_voidProcessNeighbor>:
 * Updates both:
 *   - local_worst → for DSRC flag broadcast (always set)
 *   - alert_level → cooperative for opposite dir, local for same dir
 */
void FCW_voidProcessNeighbor(const Neighbor *n, float front_distance, Direction_t dir)
{
 8001938:	b580      	push	{r7, lr}
 800193a:	b088      	sub	sp, #32
 800193c:	af00      	add	r7, sp, #0
 800193e:	60f8      	str	r0, [r7, #12]
 8001940:	60b9      	str	r1, [r7, #8]
 8001942:	4613      	mov	r3, r2
 8001944:	71fb      	strb	r3, [r7, #7]
  float rel_speed;

  if (dir == DIR_OPPOSITE)
 8001946:	79fb      	ldrb	r3, [r7, #7]
 8001948:	2b01      	cmp	r3, #1
 800194a:	d10a      	bne.n	8001962 <FCW_voidProcessNeighbor+0x2a>
  {
    /* Both approaching → speeds add up */
    rel_speed = Host_Speed + n->speed;
 800194c:	68fb      	ldr	r3, [r7, #12]
 800194e:	685b      	ldr	r3, [r3, #4]
 8001950:	4a2d      	ldr	r2, [pc, #180]	@ (8001a08 <FCW_voidProcessNeighbor+0xd0>)
 8001952:	6812      	ldr	r2, [r2, #0]
 8001954:	4611      	mov	r1, r2
 8001956:	4618      	mov	r0, r3
 8001958:	f7ff f84a 	bl	80009f0 <__addsf3>
 800195c:	4603      	mov	r3, r0
 800195e:	61fb      	str	r3, [r7, #28]
 8001960:	e00c      	b.n	800197c <FCW_voidProcessNeighbor+0x44>
  }
  else if (dir == DIR_SAME)
 8001962:	79fb      	ldrb	r3, [r7, #7]
 8001964:	2b00      	cmp	r3, #0
 8001966:	d14a      	bne.n	80019fe <FCW_voidProcessNeighbor+0xc6>
  {
    /* Following → closing speed = difference */
    rel_speed = Host_Speed - n->speed;
 8001968:	4b27      	ldr	r3, [pc, #156]	@ (8001a08 <FCW_voidProcessNeighbor+0xd0>)
 800196a:	681a      	ldr	r2, [r3, #0]
 800196c:	68fb      	ldr	r3, [r7, #12]
 800196e:	685b      	ldr	r3, [r3, #4]
 8001970:	4619      	mov	r1, r3
 8001972:	4610      	mov	r0, r2
 8001974:	f7ff f83a 	bl	80009ec <__aeabi_fsub>
 8001978:	4603      	mov	r3, r0
 800197a:	61fb      	str	r3, [r7, #28]
  {
    /* DIR_CROSSING and DIR_UNKNOWN → perpendicular/crossing and unknown traffic, skip for FCW */
    return;
  }

  if (rel_speed > 0.0f && front_distance > 0.0f)
 800197c:	f04f 0100 	mov.w	r1, #0
 8001980:	69f8      	ldr	r0, [r7, #28]
 8001982:	f7ff faf9 	bl	8000f78 <__aeabi_fcmpgt>
 8001986:	4603      	mov	r3, r0
 8001988:	2b00      	cmp	r3, #0
 800198a:	d039      	beq.n	8001a00 <FCW_voidProcessNeighbor+0xc8>
 800198c:	f04f 0100 	mov.w	r1, #0
 8001990:	68b8      	ldr	r0, [r7, #8]
 8001992:	f7ff faf1 	bl	8000f78 <__aeabi_fcmpgt>
 8001996:	4603      	mov	r3, r0
 8001998:	2b00      	cmp	r3, #0
 800199a:	d031      	beq.n	8001a00 <FCW_voidProcessNeighbor+0xc8>
  {
    float ttc = SafetyEngine_CalcTTC(front_distance, rel_speed);
 800199c:	69f9      	ldr	r1, [r7, #28]
 800199e:	68b8      	ldr	r0, [r7, #8]
 80019a0:	f000 fdac 	bl	80024fc <SafetyEngine_CalcTTC>
 80019a4:	61b8      	str	r0, [r7, #24]
    RiskLevel_t level = SafetyEngine_EvaluateRisk(ttc, FCW_WARNING_TTC, FCW_CRITICAL_TTC);
 80019a6:	f04f 4280 	mov.w	r2, #1073741824	@ 0x40000000
 80019aa:	4918      	ldr	r1, [pc, #96]	@ (8001a0c <FCW_voidProcessNeighbor+0xd4>)
 80019ac:	69b8      	ldr	r0, [r7, #24]
 80019ae:	f000 fdbf 	bl	8002530 <SafetyEngine_EvaluateRisk>
 80019b2:	4603      	mov	r3, r0
 80019b4:	75fb      	strb	r3, [r7, #23]

    /* Track worst local risk → this becomes the DSRC broadcast flag */
    if (level > FCW_LocalWorst)
 80019b6:	4b16      	ldr	r3, [pc, #88]	@ (8001a10 <FCW_voidProcessNeighbor+0xd8>)
 80019b8:	781b      	ldrb	r3, [r3, #0]
 80019ba:	7dfa      	ldrb	r2, [r7, #23]
 80019bc:	429a      	cmp	r2, r3
 80019be:	d902      	bls.n	80019c6 <FCW_voidProcessNeighbor+0x8e>
    {
      FCW_LocalWorst = level;
 80019c0:	4a13      	ldr	r2, [pc, #76]	@ (8001a10 <FCW_voidProcessNeighbor+0xd8>)
 80019c2:	7dfb      	ldrb	r3, [r7, #23]
 80019c4:	7013      	strb	r3, [r2, #0]
    }

    /* Alert decision depends on direction */
    if (dir == DIR_OPPOSITE)
 80019c6:	79fb      	ldrb	r3, [r7, #7]
 80019c8:	2b01      	cmp	r3, #1
 80019ca:	d10f      	bne.n	80019ec <FCW_voidProcessNeighbor+0xb4>
       * Only trigger alert if BOTH vehicles detect danger.
       * My flag will be broadcast (local_worst), so the other
       * vehicle sees it next cycle. Here we check if the other
       * vehicle has also reported danger.
       */
      if (level > RISK_SAFE && n->fcw_flag > 0)
 80019cc:	7dfb      	ldrb	r3, [r7, #23]
 80019ce:	2b00      	cmp	r3, #0
 80019d0:	d016      	beq.n	8001a00 <FCW_voidProcessNeighbor+0xc8>
 80019d2:	68fb      	ldr	r3, [r7, #12]
 80019d4:	7c1b      	ldrb	r3, [r3, #16]
 80019d6:	2b00      	cmp	r3, #0
 80019d8:	d012      	beq.n	8001a00 <FCW_voidProcessNeighbor+0xc8>
      {
        if (level > FCW_AlertLevel)
 80019da:	4b0e      	ldr	r3, [pc, #56]	@ (8001a14 <FCW_voidProcessNeighbor+0xdc>)
 80019dc:	781b      	ldrb	r3, [r3, #0]
 80019de:	7dfa      	ldrb	r2, [r7, #23]
 80019e0:	429a      	cmp	r2, r3
 80019e2:	d90d      	bls.n	8001a00 <FCW_voidProcessNeighbor+0xc8>
        {
          FCW_AlertLevel = level;
 80019e4:	4a0b      	ldr	r2, [pc, #44]	@ (8001a14 <FCW_voidProcessNeighbor+0xdc>)
 80019e6:	7dfb      	ldrb	r3, [r7, #23]
 80019e8:	7013      	strb	r3, [r2, #0]
 80019ea:	e009      	b.n	8001a00 <FCW_voidProcessNeighbor+0xc8>
    {
      /*
       * Local detection only (same direction):
       * No cooperative confirmation needed.
       */
      if (level > FCW_AlertLevel)
 80019ec:	4b09      	ldr	r3, [pc, #36]	@ (8001a14 <FCW_voidProcessNeighbor+0xdc>)
 80019ee:	781b      	ldrb	r3, [r3, #0]
 80019f0:	7dfa      	ldrb	r2, [r7, #23]
 80019f2:	429a      	cmp	r2, r3
 80019f4:	d904      	bls.n	8001a00 <FCW_voidProcessNeighbor+0xc8>
      {
        FCW_AlertLevel = level;
 80019f6:	4a07      	ldr	r2, [pc, #28]	@ (8001a14 <FCW_voidProcessNeighbor+0xdc>)
 80019f8:	7dfb      	ldrb	r3, [r7, #23]
 80019fa:	7013      	strb	r3, [r2, #0]
 80019fc:	e000      	b.n	8001a00 <FCW_voidProcessNeighbor+0xc8>
    return;
 80019fe:	bf00      	nop
      }
    }
  }
}
 8001a00:	3720      	adds	r7, #32
 8001a02:	46bd      	mov	sp, r7
 8001a04:	bd80      	pop	{r7, pc}
 8001a06:	bf00      	nop
 8001a08:	20000478 	.word	0x20000478
 8001a0c:	40400000 	.word	0x40400000
 8001a10:	20000457 	.word	0x20000457
 8001a14:	20000458 	.word	0x20000458

08001a18 <FCW_voidEndCycle>:

/**
 * @brief End cycle — set FCW flag and activate/deactivate alerts
 */
void FCW_voidEndCycle(void)
{
 8001a18:	b580      	push	{r7, lr}
 8001a1a:	af00      	add	r7, sp, #0
  /*
   * CRITICAL: Always update the flag from local detection.
   * This flag is read by FCW_u8GetFlag() and sent in every DSRC message.
   * Without this, the cooperative confirmation would deadlock.
   */
  FCW_CurrentFlag = (uint8_t)FCW_LocalWorst;
 8001a1c:	4b08      	ldr	r3, [pc, #32]	@ (8001a40 <FCW_voidEndCycle+0x28>)
 8001a1e:	781a      	ldrb	r2, [r3, #0]
 8001a20:	4b08      	ldr	r3, [pc, #32]	@ (8001a44 <FCW_voidEndCycle+0x2c>)
 8001a22:	701a      	strb	r2, [r3, #0]

  /* Activate or deactivate alert based on confirmed level */
  if (FCW_AlertLevel > RISK_SAFE)
 8001a24:	4b08      	ldr	r3, [pc, #32]	@ (8001a48 <FCW_voidEndCycle+0x30>)
 8001a26:	781b      	ldrb	r3, [r3, #0]
 8001a28:	2b00      	cmp	r3, #0
 8001a2a:	d005      	beq.n	8001a38 <FCW_voidEndCycle+0x20>
  {
    FCW_ActivateAlert(FCW_AlertLevel);
 8001a2c:	4b06      	ldr	r3, [pc, #24]	@ (8001a48 <FCW_voidEndCycle+0x30>)
 8001a2e:	781b      	ldrb	r3, [r3, #0]
 8001a30:	4618      	mov	r0, r3
 8001a32:	f000 f815 	bl	8001a60 <FCW_ActivateAlert>
  }
  else
  {
    FCW_DeactivateAlert();
  }
}
 8001a36:	e001      	b.n	8001a3c <FCW_voidEndCycle+0x24>
    FCW_DeactivateAlert();
 8001a38:	f000 f81c 	bl	8001a74 <FCW_DeactivateAlert>
}
 8001a3c:	bf00      	nop
 8001a3e:	bd80      	pop	{r7, pc}
 8001a40:	20000457 	.word	0x20000457
 8001a44:	20000456 	.word	0x20000456
 8001a48:	20000458 	.word	0x20000458

08001a4c <FCW_u8GetFlag>:
  FCW_voidEndCycle();
}

/* ============ Public Getter ============ */
uint8_t FCW_u8GetFlag(void)
{
 8001a4c:	b480      	push	{r7}
 8001a4e:	af00      	add	r7, sp, #0
  return FCW_CurrentFlag;
 8001a50:	4b02      	ldr	r3, [pc, #8]	@ (8001a5c <FCW_u8GetFlag+0x10>)
 8001a52:	781b      	ldrb	r3, [r3, #0]
}
 8001a54:	4618      	mov	r0, r3
 8001a56:	46bd      	mov	sp, r7
 8001a58:	bc80      	pop	{r7}
 8001a5a:	4770      	bx	lr
 8001a5c:	20000456 	.word	0x20000456

08001a60 <FCW_ActivateAlert>:

/**
 * @brief Activate alerts (LED, Buzzer, ADAS) based on risk level
 */
static void FCW_ActivateAlert(RiskLevel_t level)
{
 8001a60:	b480      	push	{r7}
 8001a62:	b083      	sub	sp, #12
 8001a64:	af00      	add	r7, sp, #0
 8001a66:	4603      	mov	r3, r0
 8001a68:	71fb      	strb	r3, [r7, #7]
  if (level == RISK_CRITICAL)
  {
    /* ADAS_RequestBrake(); */
  }
#endif
}
 8001a6a:	bf00      	nop
 8001a6c:	370c      	adds	r7, #12
 8001a6e:	46bd      	mov	sp, r7
 8001a70:	bc80      	pop	{r7}
 8001a72:	4770      	bx	lr

08001a74 <FCW_DeactivateAlert>:

/**
 * @brief Deactivate all alerts when risk returns to SAFE
 */
static void FCW_DeactivateAlert(void)
{
 8001a74:	b480      	push	{r7}
 8001a76:	af00      	add	r7, sp, #0
#endif

#if FCW_ENABLE_BUZZER
  /* BUZZER_OFF(); */
#endif
}
 8001a78:	bf00      	nop
 8001a7a:	46bd      	mov	sp, r7
 8001a7c:	bc80      	pop	{r7}
 8001a7e:	4770      	bx	lr

08001a80 <GPIO_enumPinInit>:
 *                      - PullType: Pull-up/Pull-down configuration (NO_PULL, PULL_UP, PULL_DOWN)
 *                      - AlternateFunction: Alternate function number if Mode is ALTFN (AF0 to AF15)
 * @retval ErrorState_t: OK if configuration successful, NOK if invalid parameters, NULL_POINTER if invalid ptr
 */
ErrorState_t GPIO_enumPinInit(const GPIO_PinConfig_t*PinConfig)
{
 8001a80:	b490      	push	{r4, r7}
 8001a82:	b084      	sub	sp, #16
 8001a84:	af00      	add	r7, sp, #0
 8001a86:	6078      	str	r0, [r7, #4]
  ErrorState_t Local_u8ErrorState = OK;
 8001a88:	2300      	movs	r3, #0
 8001a8a:	73fb      	strb	r3, [r7, #15]

  if (PinConfig != NULL)
 8001a8c:	687b      	ldr	r3, [r7, #4]
 8001a8e:	2b00      	cmp	r3, #0
 8001a90:	f000 813f 	beq.w	8001d12 <GPIO_enumPinInit+0x292>
  {
    /* Check if port and pin numbers are valid */
    if ((PinConfig->Port              <=   GPIO_PORTH          ) &&
 8001a94:	687b      	ldr	r3, [r7, #4]
 8001a96:	781b      	ldrb	r3, [r3, #0]
 8001a98:	2b07      	cmp	r3, #7
 8001a9a:	f200 8137 	bhi.w	8001d0c <GPIO_enumPinInit+0x28c>
        (PinConfig->PinNum            <=   GPIO_PIN15          ) &&
 8001a9e:	687b      	ldr	r3, [r7, #4]
 8001aa0:	785b      	ldrb	r3, [r3, #1]
    if ((PinConfig->Port              <=   GPIO_PORTH          ) &&
 8001aa2:	2b0f      	cmp	r3, #15
 8001aa4:	f200 8132 	bhi.w	8001d0c <GPIO_enumPinInit+0x28c>
        (PinConfig->Mode              <=   GPIO_ANALOG         ) &&
 8001aa8:	687b      	ldr	r3, [r7, #4]
 8001aaa:	789b      	ldrb	r3, [r3, #2]
        (PinConfig->PinNum            <=   GPIO_PIN15          ) &&
 8001aac:	2b03      	cmp	r3, #3
 8001aae:	f200 812d 	bhi.w	8001d0c <GPIO_enumPinInit+0x28c>
        (PinConfig->Otype             <=   GPIO_OPEN_DRAIN     ) &&
 8001ab2:	687b      	ldr	r3, [r7, #4]
 8001ab4:	78db      	ldrb	r3, [r3, #3]
        (PinConfig->Mode              <=   GPIO_ANALOG         ) &&
 8001ab6:	2b01      	cmp	r3, #1
 8001ab8:	f200 8128 	bhi.w	8001d0c <GPIO_enumPinInit+0x28c>
        (PinConfig->Speed             <=   GPIO_VERY_HIGH_SPEED) &&
 8001abc:	687b      	ldr	r3, [r7, #4]
 8001abe:	791b      	ldrb	r3, [r3, #4]
        (PinConfig->Otype             <=   GPIO_OPEN_DRAIN     ) &&
 8001ac0:	2b03      	cmp	r3, #3
 8001ac2:	f200 8123 	bhi.w	8001d0c <GPIO_enumPinInit+0x28c>
        (PinConfig->PullType          <=   GPIO_PULL_DOWN      ) &&
 8001ac6:	687b      	ldr	r3, [r7, #4]
 8001ac8:	795b      	ldrb	r3, [r3, #5]
        (PinConfig->Speed             <=   GPIO_VERY_HIGH_SPEED) &&
 8001aca:	2b02      	cmp	r3, #2
 8001acc:	f200 811e 	bhi.w	8001d0c <GPIO_enumPinInit+0x28c>
        (PinConfig->AlternateFunction <=   GPIO_AF15           ))
 8001ad0:	687b      	ldr	r3, [r7, #4]
 8001ad2:	799b      	ldrb	r3, [r3, #6]
        (PinConfig->PullType          <=   GPIO_PULL_DOWN      ) &&
 8001ad4:	2b0f      	cmp	r3, #15
 8001ad6:	f200 8119 	bhi.w	8001d0c <GPIO_enumPinInit+0x28c>
    {
      /* Configure pin mode (Input/Output/Alternate Function/Analog) */
      (GPIO_Port[PinConfig->Port]->MODER) &= ~(MODER_MASK << ((PinConfig->PinNum) * MODER_PIN_ACCESS));
 8001ada:	687b      	ldr	r3, [r7, #4]
 8001adc:	781b      	ldrb	r3, [r3, #0]
 8001ade:	461a      	mov	r2, r3
 8001ae0:	4b91      	ldr	r3, [pc, #580]	@ (8001d28 <GPIO_enumPinInit+0x2a8>)
 8001ae2:	f853 3022 	ldr.w	r3, [r3, r2, lsl #2]
 8001ae6:	681a      	ldr	r2, [r3, #0]
 8001ae8:	687b      	ldr	r3, [r7, #4]
 8001aea:	785b      	ldrb	r3, [r3, #1]
 8001aec:	005b      	lsls	r3, r3, #1
 8001aee:	2103      	movs	r1, #3
 8001af0:	fa01 f303 	lsl.w	r3, r1, r3
 8001af4:	43db      	mvns	r3, r3
 8001af6:	4619      	mov	r1, r3
 8001af8:	687b      	ldr	r3, [r7, #4]
 8001afa:	781b      	ldrb	r3, [r3, #0]
 8001afc:	4618      	mov	r0, r3
 8001afe:	4b8a      	ldr	r3, [pc, #552]	@ (8001d28 <GPIO_enumPinInit+0x2a8>)
 8001b00:	f853 3020 	ldr.w	r3, [r3, r0, lsl #2]
 8001b04:	400a      	ands	r2, r1
 8001b06:	601a      	str	r2, [r3, #0]
      (GPIO_Port[PinConfig->Port]->MODER) |= (PinConfig->Mode << ((PinConfig->PinNum) * MODER_PIN_ACCESS));
 8001b08:	687b      	ldr	r3, [r7, #4]
 8001b0a:	781b      	ldrb	r3, [r3, #0]
 8001b0c:	461a      	mov	r2, r3
 8001b0e:	4b86      	ldr	r3, [pc, #536]	@ (8001d28 <GPIO_enumPinInit+0x2a8>)
 8001b10:	f853 3022 	ldr.w	r3, [r3, r2, lsl #2]
 8001b14:	681a      	ldr	r2, [r3, #0]
 8001b16:	687b      	ldr	r3, [r7, #4]
 8001b18:	789b      	ldrb	r3, [r3, #2]
 8001b1a:	4619      	mov	r1, r3
 8001b1c:	687b      	ldr	r3, [r7, #4]
 8001b1e:	785b      	ldrb	r3, [r3, #1]
 8001b20:	005b      	lsls	r3, r3, #1
 8001b22:	fa01 f303 	lsl.w	r3, r1, r3
 8001b26:	4619      	mov	r1, r3
 8001b28:	687b      	ldr	r3, [r7, #4]
 8001b2a:	781b      	ldrb	r3, [r3, #0]
 8001b2c:	4618      	mov	r0, r3
 8001b2e:	4b7e      	ldr	r3, [pc, #504]	@ (8001d28 <GPIO_enumPinInit+0x2a8>)
 8001b30:	f853 3020 	ldr.w	r3, [r3, r0, lsl #2]
 8001b34:	430a      	orrs	r2, r1
 8001b36:	601a      	str	r2, [r3, #0]
      //_______________________________________________________________________________________________________________//
      /* Set Pull up or Pull down or No pull */
      // if the pin mode is analog, HW will ignore the pull type
      (GPIO_Port[PinConfig->Port]->PUPDR) &= ~(PUPDR_MASK << ((PinConfig->PinNum) * PUPDR_PIN_ACCESS));
 8001b38:	687b      	ldr	r3, [r7, #4]
 8001b3a:	781b      	ldrb	r3, [r3, #0]
 8001b3c:	461a      	mov	r2, r3
 8001b3e:	4b7a      	ldr	r3, [pc, #488]	@ (8001d28 <GPIO_enumPinInit+0x2a8>)
 8001b40:	f853 3022 	ldr.w	r3, [r3, r2, lsl #2]
 8001b44:	68da      	ldr	r2, [r3, #12]
 8001b46:	687b      	ldr	r3, [r7, #4]
 8001b48:	785b      	ldrb	r3, [r3, #1]
 8001b4a:	005b      	lsls	r3, r3, #1
 8001b4c:	2103      	movs	r1, #3
 8001b4e:	fa01 f303 	lsl.w	r3, r1, r3
 8001b52:	43db      	mvns	r3, r3
 8001b54:	4619      	mov	r1, r3
 8001b56:	687b      	ldr	r3, [r7, #4]
 8001b58:	781b      	ldrb	r3, [r3, #0]
 8001b5a:	4618      	mov	r0, r3
 8001b5c:	4b72      	ldr	r3, [pc, #456]	@ (8001d28 <GPIO_enumPinInit+0x2a8>)
 8001b5e:	f853 3020 	ldr.w	r3, [r3, r0, lsl #2]
 8001b62:	400a      	ands	r2, r1
 8001b64:	60da      	str	r2, [r3, #12]
      (GPIO_Port[PinConfig->Port]->PUPDR) |= (PinConfig->PullType << ((PinConfig->PinNum) * PUPDR_PIN_ACCESS));
 8001b66:	687b      	ldr	r3, [r7, #4]
 8001b68:	781b      	ldrb	r3, [r3, #0]
 8001b6a:	461a      	mov	r2, r3
 8001b6c:	4b6e      	ldr	r3, [pc, #440]	@ (8001d28 <GPIO_enumPinInit+0x2a8>)
 8001b6e:	f853 3022 	ldr.w	r3, [r3, r2, lsl #2]
 8001b72:	68da      	ldr	r2, [r3, #12]
 8001b74:	687b      	ldr	r3, [r7, #4]
 8001b76:	795b      	ldrb	r3, [r3, #5]
 8001b78:	4619      	mov	r1, r3
 8001b7a:	687b      	ldr	r3, [r7, #4]
 8001b7c:	785b      	ldrb	r3, [r3, #1]
 8001b7e:	005b      	lsls	r3, r3, #1
 8001b80:	fa01 f303 	lsl.w	r3, r1, r3
 8001b84:	4619      	mov	r1, r3
 8001b86:	687b      	ldr	r3, [r7, #4]
 8001b88:	781b      	ldrb	r3, [r3, #0]
 8001b8a:	4618      	mov	r0, r3
 8001b8c:	4b66      	ldr	r3, [pc, #408]	@ (8001d28 <GPIO_enumPinInit+0x2a8>)
 8001b8e:	f853 3020 	ldr.w	r3, [r3, r0, lsl #2]
 8001b92:	430a      	orrs	r2, r1
 8001b94:	60da      	str	r2, [r3, #12]
      //_______________________________________________________________________________________________________________//
      /* select output type and output speed in case of general purpose output or alternate function */
      if ((PinConfig->Mode == GPIO_OUTPUT) || (PinConfig->Mode == GPIO_ALTFN))
 8001b96:	687b      	ldr	r3, [r7, #4]
 8001b98:	789b      	ldrb	r3, [r3, #2]
 8001b9a:	2b01      	cmp	r3, #1
 8001b9c:	d004      	beq.n	8001ba8 <GPIO_enumPinInit+0x128>
 8001b9e:	687b      	ldr	r3, [r7, #4]
 8001ba0:	789b      	ldrb	r3, [r3, #2]
 8001ba2:	2b02      	cmp	r3, #2
 8001ba4:	f040 80b8 	bne.w	8001d18 <GPIO_enumPinInit+0x298>
      {
        /* Set output type : push pull or open drain */
        GPIO_Port[PinConfig->Port]->OTYPER &= ~(OTYPER_MASK << PinConfig->PinNum);
 8001ba8:	687b      	ldr	r3, [r7, #4]
 8001baa:	781b      	ldrb	r3, [r3, #0]
 8001bac:	461a      	mov	r2, r3
 8001bae:	4b5e      	ldr	r3, [pc, #376]	@ (8001d28 <GPIO_enumPinInit+0x2a8>)
 8001bb0:	f853 3022 	ldr.w	r3, [r3, r2, lsl #2]
 8001bb4:	685a      	ldr	r2, [r3, #4]
 8001bb6:	687b      	ldr	r3, [r7, #4]
 8001bb8:	785b      	ldrb	r3, [r3, #1]
 8001bba:	4619      	mov	r1, r3
 8001bbc:	2301      	movs	r3, #1
 8001bbe:	408b      	lsls	r3, r1
 8001bc0:	43db      	mvns	r3, r3
 8001bc2:	4619      	mov	r1, r3
 8001bc4:	687b      	ldr	r3, [r7, #4]
 8001bc6:	781b      	ldrb	r3, [r3, #0]
 8001bc8:	4618      	mov	r0, r3
 8001bca:	4b57      	ldr	r3, [pc, #348]	@ (8001d28 <GPIO_enumPinInit+0x2a8>)
 8001bcc:	f853 3020 	ldr.w	r3, [r3, r0, lsl #2]
 8001bd0:	400a      	ands	r2, r1
 8001bd2:	605a      	str	r2, [r3, #4]
        GPIO_Port[PinConfig->Port]->OTYPER |= (PinConfig->Otype << PinConfig->PinNum);
 8001bd4:	687b      	ldr	r3, [r7, #4]
 8001bd6:	781b      	ldrb	r3, [r3, #0]
 8001bd8:	461a      	mov	r2, r3
 8001bda:	4b53      	ldr	r3, [pc, #332]	@ (8001d28 <GPIO_enumPinInit+0x2a8>)
 8001bdc:	f853 3022 	ldr.w	r3, [r3, r2, lsl #2]
 8001be0:	685a      	ldr	r2, [r3, #4]
 8001be2:	687b      	ldr	r3, [r7, #4]
 8001be4:	78db      	ldrb	r3, [r3, #3]
 8001be6:	4619      	mov	r1, r3
 8001be8:	687b      	ldr	r3, [r7, #4]
 8001bea:	785b      	ldrb	r3, [r3, #1]
 8001bec:	fa01 f303 	lsl.w	r3, r1, r3
 8001bf0:	4619      	mov	r1, r3
 8001bf2:	687b      	ldr	r3, [r7, #4]
 8001bf4:	781b      	ldrb	r3, [r3, #0]
 8001bf6:	4618      	mov	r0, r3
 8001bf8:	4b4b      	ldr	r3, [pc, #300]	@ (8001d28 <GPIO_enumPinInit+0x2a8>)
 8001bfa:	f853 3020 	ldr.w	r3, [r3, r0, lsl #2]
 8001bfe:	430a      	orrs	r2, r1
 8001c00:	605a      	str	r2, [r3, #4]
        //_______________________________________________________________________________________________________________//
        /* Configure output speed : low, medium, high, fast */
        GPIO_Port[PinConfig->Port]->OSPEEDR &= ~(OSPEEDR_MASK << (PinConfig->PinNum * OSPEEDR_PIN_ACCESS));
 8001c02:	687b      	ldr	r3, [r7, #4]
 8001c04:	781b      	ldrb	r3, [r3, #0]
 8001c06:	461a      	mov	r2, r3
 8001c08:	4b47      	ldr	r3, [pc, #284]	@ (8001d28 <GPIO_enumPinInit+0x2a8>)
 8001c0a:	f853 3022 	ldr.w	r3, [r3, r2, lsl #2]
 8001c0e:	689a      	ldr	r2, [r3, #8]
 8001c10:	687b      	ldr	r3, [r7, #4]
 8001c12:	785b      	ldrb	r3, [r3, #1]
 8001c14:	005b      	lsls	r3, r3, #1
 8001c16:	2103      	movs	r1, #3
 8001c18:	fa01 f303 	lsl.w	r3, r1, r3
 8001c1c:	43db      	mvns	r3, r3
 8001c1e:	4619      	mov	r1, r3
 8001c20:	687b      	ldr	r3, [r7, #4]
 8001c22:	781b      	ldrb	r3, [r3, #0]
 8001c24:	4618      	mov	r0, r3
 8001c26:	4b40      	ldr	r3, [pc, #256]	@ (8001d28 <GPIO_enumPinInit+0x2a8>)
 8001c28:	f853 3020 	ldr.w	r3, [r3, r0, lsl #2]
 8001c2c:	400a      	ands	r2, r1
 8001c2e:	609a      	str	r2, [r3, #8]
        GPIO_Port[PinConfig->Port]->OSPEEDR |= (PinConfig->Speed << (PinConfig->PinNum * OSPEEDR_PIN_ACCESS));
 8001c30:	687b      	ldr	r3, [r7, #4]
 8001c32:	781b      	ldrb	r3, [r3, #0]
 8001c34:	461a      	mov	r2, r3
 8001c36:	4b3c      	ldr	r3, [pc, #240]	@ (8001d28 <GPIO_enumPinInit+0x2a8>)
 8001c38:	f853 3022 	ldr.w	r3, [r3, r2, lsl #2]
 8001c3c:	689a      	ldr	r2, [r3, #8]
 8001c3e:	687b      	ldr	r3, [r7, #4]
 8001c40:	791b      	ldrb	r3, [r3, #4]
 8001c42:	4619      	mov	r1, r3
 8001c44:	687b      	ldr	r3, [r7, #4]
 8001c46:	785b      	ldrb	r3, [r3, #1]
 8001c48:	005b      	lsls	r3, r3, #1
 8001c4a:	fa01 f303 	lsl.w	r3, r1, r3
 8001c4e:	4619      	mov	r1, r3
 8001c50:	687b      	ldr	r3, [r7, #4]
 8001c52:	781b      	ldrb	r3, [r3, #0]
 8001c54:	4618      	mov	r0, r3
 8001c56:	4b34      	ldr	r3, [pc, #208]	@ (8001d28 <GPIO_enumPinInit+0x2a8>)
 8001c58:	f853 3020 	ldr.w	r3, [r3, r0, lsl #2]
 8001c5c:	430a      	orrs	r2, r1
 8001c5e:	609a      	str	r2, [r3, #8]
        //_______________________________________________________________________________________________________________//
        /* select the pin alternate function */
        if (PinConfig->Mode == GPIO_ALTFN)
 8001c60:	687b      	ldr	r3, [r7, #4]
 8001c62:	789b      	ldrb	r3, [r3, #2]
 8001c64:	2b02      	cmp	r3, #2
 8001c66:	d157      	bne.n	8001d18 <GPIO_enumPinInit+0x298>
        {
          GPIO_Port[PinConfig->Port]->AFR[(PinConfig->PinNum) / AFR_PIN_SHIFT] &= ~(AFR_MASK << (((PinConfig->PinNum) % 8u) * AFR_PIN_ACCESS));
 8001c68:	687b      	ldr	r3, [r7, #4]
 8001c6a:	781b      	ldrb	r3, [r3, #0]
 8001c6c:	461a      	mov	r2, r3
 8001c6e:	4b2e      	ldr	r3, [pc, #184]	@ (8001d28 <GPIO_enumPinInit+0x2a8>)
 8001c70:	f853 3022 	ldr.w	r3, [r3, r2, lsl #2]
 8001c74:	687a      	ldr	r2, [r7, #4]
 8001c76:	7852      	ldrb	r2, [r2, #1]
 8001c78:	08d2      	lsrs	r2, r2, #3
 8001c7a:	b2d2      	uxtb	r2, r2
 8001c7c:	3208      	adds	r2, #8
 8001c7e:	f853 2022 	ldr.w	r2, [r3, r2, lsl #2]
 8001c82:	687b      	ldr	r3, [r7, #4]
 8001c84:	785b      	ldrb	r3, [r3, #1]
 8001c86:	f003 0307 	and.w	r3, r3, #7
 8001c8a:	009b      	lsls	r3, r3, #2
 8001c8c:	210f      	movs	r1, #15
 8001c8e:	fa01 f303 	lsl.w	r3, r1, r3
 8001c92:	43db      	mvns	r3, r3
 8001c94:	461c      	mov	r4, r3
 8001c96:	687b      	ldr	r3, [r7, #4]
 8001c98:	781b      	ldrb	r3, [r3, #0]
 8001c9a:	4619      	mov	r1, r3
 8001c9c:	4b22      	ldr	r3, [pc, #136]	@ (8001d28 <GPIO_enumPinInit+0x2a8>)
 8001c9e:	f853 3021 	ldr.w	r3, [r3, r1, lsl #2]
 8001ca2:	6879      	ldr	r1, [r7, #4]
 8001ca4:	7849      	ldrb	r1, [r1, #1]
 8001ca6:	08c9      	lsrs	r1, r1, #3
 8001ca8:	b2c9      	uxtb	r1, r1
 8001caa:	4608      	mov	r0, r1
 8001cac:	ea02 0104 	and.w	r1, r2, r4
 8001cb0:	f100 0208 	add.w	r2, r0, #8
 8001cb4:	f843 1022 	str.w	r1, [r3, r2, lsl #2]
          GPIO_Port[PinConfig->Port]->AFR[(PinConfig->PinNum) / AFR_PIN_SHIFT] |= (PinConfig->AlternateFunction << (((PinConfig->PinNum) % 8u) * AFR_PIN_ACCESS));
 8001cb8:	687b      	ldr	r3, [r7, #4]
 8001cba:	781b      	ldrb	r3, [r3, #0]
 8001cbc:	461a      	mov	r2, r3
 8001cbe:	4b1a      	ldr	r3, [pc, #104]	@ (8001d28 <GPIO_enumPinInit+0x2a8>)
 8001cc0:	f853 3022 	ldr.w	r3, [r3, r2, lsl #2]
 8001cc4:	687a      	ldr	r2, [r7, #4]
 8001cc6:	7852      	ldrb	r2, [r2, #1]
 8001cc8:	08d2      	lsrs	r2, r2, #3
 8001cca:	b2d2      	uxtb	r2, r2
 8001ccc:	3208      	adds	r2, #8
 8001cce:	f853 2022 	ldr.w	r2, [r3, r2, lsl #2]
 8001cd2:	687b      	ldr	r3, [r7, #4]
 8001cd4:	799b      	ldrb	r3, [r3, #6]
 8001cd6:	4619      	mov	r1, r3
 8001cd8:	687b      	ldr	r3, [r7, #4]
 8001cda:	785b      	ldrb	r3, [r3, #1]
 8001cdc:	f003 0307 	and.w	r3, r3, #7
 8001ce0:	009b      	lsls	r3, r3, #2
 8001ce2:	fa01 f303 	lsl.w	r3, r1, r3
 8001ce6:	461c      	mov	r4, r3
 8001ce8:	687b      	ldr	r3, [r7, #4]
 8001cea:	781b      	ldrb	r3, [r3, #0]
 8001cec:	4619      	mov	r1, r3
 8001cee:	4b0e      	ldr	r3, [pc, #56]	@ (8001d28 <GPIO_enumPinInit+0x2a8>)
 8001cf0:	f853 3021 	ldr.w	r3, [r3, r1, lsl #2]
 8001cf4:	6879      	ldr	r1, [r7, #4]
 8001cf6:	7849      	ldrb	r1, [r1, #1]
 8001cf8:	08c9      	lsrs	r1, r1, #3
 8001cfa:	b2c9      	uxtb	r1, r1
 8001cfc:	4608      	mov	r0, r1
 8001cfe:	ea42 0104 	orr.w	r1, r2, r4
 8001d02:	f100 0208 	add.w	r2, r0, #8
 8001d06:	f843 1022 	str.w	r1, [r3, r2, lsl #2]
      if ((PinConfig->Mode == GPIO_OUTPUT) || (PinConfig->Mode == GPIO_ALTFN))
 8001d0a:	e005      	b.n	8001d18 <GPIO_enumPinInit+0x298>
        }
      }
    }
    else
    {
      Local_u8ErrorState = NOK;
 8001d0c:	2301      	movs	r3, #1
 8001d0e:	73fb      	strb	r3, [r7, #15]
 8001d10:	e003      	b.n	8001d1a <GPIO_enumPinInit+0x29a>
    }
  }
  else
  {
    Local_u8ErrorState = NULL_POINTER;
 8001d12:	2302      	movs	r3, #2
 8001d14:	73fb      	strb	r3, [r7, #15]
 8001d16:	e000      	b.n	8001d1a <GPIO_enumPinInit+0x29a>
      if ((PinConfig->Mode == GPIO_OUTPUT) || (PinConfig->Mode == GPIO_ALTFN))
 8001d18:	bf00      	nop
  }
  return Local_u8ErrorState;
 8001d1a:	7bfb      	ldrb	r3, [r7, #15]
}
 8001d1c:	4618      	mov	r0, r3
 8001d1e:	3710      	adds	r7, #16
 8001d20:	46bd      	mov	sp, r7
 8001d22:	bc90      	pop	{r4, r7}
 8001d24:	4770      	bx	lr
 8001d26:	bf00      	nop
 8001d28:	20000000 	.word	0x20000000

08001d2c <IMA_voidInit>:
static uint8_t     IMA_IShouldWait      = 0; /* Host vehicle should yield (other is faster) */
static RiskLevel_t IMA_WorstRisk        = RISK_SAFE; /* Worst risk across all crossing neighbors */

/* ============ Init ============ */
void IMA_voidInit(void)
{
 8001d2c:	b480      	push	{r7}
 8001d2e:	af00      	add	r7, sp, #0
  IMA_CurrentFlag     = 0;
 8001d30:	4b07      	ldr	r3, [pc, #28]	@ (8001d50 <IMA_voidInit+0x24>)
 8001d32:	2200      	movs	r2, #0
 8001d34:	701a      	strb	r2, [r3, #0]
  IMA_CrossingDetected = 0;
 8001d36:	4b07      	ldr	r3, [pc, #28]	@ (8001d54 <IMA_voidInit+0x28>)
 8001d38:	2200      	movs	r2, #0
 8001d3a:	701a      	strb	r2, [r3, #0]
  IMA_IShouldWait     = 0;
 8001d3c:	4b06      	ldr	r3, [pc, #24]	@ (8001d58 <IMA_voidInit+0x2c>)
 8001d3e:	2200      	movs	r2, #0
 8001d40:	701a      	strb	r2, [r3, #0]
  IMA_WorstRisk       = RISK_SAFE;
 8001d42:	4b06      	ldr	r3, [pc, #24]	@ (8001d5c <IMA_voidInit+0x30>)
 8001d44:	2200      	movs	r2, #0
 8001d46:	701a      	strb	r2, [r3, #0]
}
 8001d48:	bf00      	nop
 8001d4a:	46bd      	mov	sp, r7
 8001d4c:	bc80      	pop	{r7}
 8001d4e:	4770      	bx	lr
 8001d50:	20000459 	.word	0x20000459
 8001d54:	2000045a 	.word	0x2000045a
 8001d58:	2000045b 	.word	0x2000045b
 8001d5c:	2000045c 	.word	0x2000045c

08001d60 <IMA_voidBeginCycle>:
 *
 *  Reset all DSRC accumulators.
 *  IMA reads Host_Speed and Host_DistToIntersection from shared globals.
 */
void IMA_voidBeginCycle(void)
{
 8001d60:	b480      	push	{r7}
 8001d62:	af00      	add	r7, sp, #0
  /* Reset accumulators */
  IMA_CrossingDetected = 0;
 8001d64:	4b06      	ldr	r3, [pc, #24]	@ (8001d80 <IMA_voidBeginCycle+0x20>)
 8001d66:	2200      	movs	r2, #0
 8001d68:	701a      	strb	r2, [r3, #0]
  IMA_IShouldWait      = 0;
 8001d6a:	4b06      	ldr	r3, [pc, #24]	@ (8001d84 <IMA_voidBeginCycle+0x24>)
 8001d6c:	2200      	movs	r2, #0
 8001d6e:	701a      	strb	r2, [r3, #0]
  IMA_WorstRisk        = RISK_SAFE;
 8001d70:	4b05      	ldr	r3, [pc, #20]	@ (8001d88 <IMA_voidBeginCycle+0x28>)
 8001d72:	2200      	movs	r2, #0
 8001d74:	701a      	strb	r2, [r3, #0]
}
 8001d76:	bf00      	nop
 8001d78:	46bd      	mov	sp, r7
 8001d7a:	bc80      	pop	{r7}
 8001d7c:	4770      	bx	lr
 8001d7e:	bf00      	nop
 8001d80:	2000045a 	.word	0x2000045a
 8001d84:	2000045b 	.word	0x2000045b
 8001d88:	2000045c 	.word	0x2000045c

08001d8c <IMA_voidProcessNeighbor>:
 *
 * @param n   Pointer to neighbor data
 * @param dir Pre-computed direction (from SafetyEngine_DetectDirection)
 */
void IMA_voidProcessNeighbor(const Neighbor *n, Direction_t dir)
{
 8001d8c:	b580      	push	{r7, lr}
 8001d8e:	b084      	sub	sp, #16
 8001d90:	af00      	add	r7, sp, #0
 8001d92:	6078      	str	r0, [r7, #4]
 8001d94:	460b      	mov	r3, r1
 8001d96:	70fb      	strb	r3, [r7, #3]
  /* Gate 1: Only crossing traffic is relevant for IMA */
  if (dir != DIR_CROSSING)
 8001d98:	78fb      	ldrb	r3, [r7, #3]
 8001d9a:	2b02      	cmp	r3, #2
 8001d9c:	d17c      	bne.n	8001e98 <IMA_voidProcessNeighbor+0x10c>
  {
    return;
  }

  /* Gate 2: Both vehicles must be near the intersection */
  if (Host_DistToIntersection <= 0.0f || Host_DistToIntersection > IMA_INTERSECTION_RANGE)
 8001d9e:	4b42      	ldr	r3, [pc, #264]	@ (8001ea8 <IMA_voidProcessNeighbor+0x11c>)
 8001da0:	681b      	ldr	r3, [r3, #0]
 8001da2:	f04f 0100 	mov.w	r1, #0
 8001da6:	4618      	mov	r0, r3
 8001da8:	f7ff f8d2 	bl	8000f50 <__aeabi_fcmple>
 8001dac:	4603      	mov	r3, r0
 8001dae:	2b00      	cmp	r3, #0
 8001db0:	d174      	bne.n	8001e9c <IMA_voidProcessNeighbor+0x110>
 8001db2:	4b3d      	ldr	r3, [pc, #244]	@ (8001ea8 <IMA_voidProcessNeighbor+0x11c>)
 8001db4:	681b      	ldr	r3, [r3, #0]
 8001db6:	493d      	ldr	r1, [pc, #244]	@ (8001eac <IMA_voidProcessNeighbor+0x120>)
 8001db8:	4618      	mov	r0, r3
 8001dba:	f7ff f8dd 	bl	8000f78 <__aeabi_fcmpgt>
 8001dbe:	4603      	mov	r3, r0
 8001dc0:	2b00      	cmp	r3, #0
 8001dc2:	d16b      	bne.n	8001e9c <IMA_voidProcessNeighbor+0x110>
  {
    return;
  }
  if (n->distance_to_intersection <= 0.0f || n->distance_to_intersection > IMA_INTERSECTION_RANGE)
 8001dc4:	687b      	ldr	r3, [r7, #4]
 8001dc6:	695b      	ldr	r3, [r3, #20]
 8001dc8:	f04f 0100 	mov.w	r1, #0
 8001dcc:	4618      	mov	r0, r3
 8001dce:	f7ff f8bf 	bl	8000f50 <__aeabi_fcmple>
 8001dd2:	4603      	mov	r3, r0
 8001dd4:	2b00      	cmp	r3, #0
 8001dd6:	d163      	bne.n	8001ea0 <IMA_voidProcessNeighbor+0x114>
 8001dd8:	687b      	ldr	r3, [r7, #4]
 8001dda:	695b      	ldr	r3, [r3, #20]
 8001ddc:	4933      	ldr	r1, [pc, #204]	@ (8001eac <IMA_voidProcessNeighbor+0x120>)
 8001dde:	4618      	mov	r0, r3
 8001de0:	f7ff f8ca 	bl	8000f78 <__aeabi_fcmpgt>
 8001de4:	4603      	mov	r3, r0
 8001de6:	2b00      	cmp	r3, #0
 8001de8:	d15a      	bne.n	8001ea0 <IMA_voidProcessNeighbor+0x114>
  {
    return;
  }

  /* Crossing vehicle near intersection confirmed */
  IMA_CrossingDetected = 1;
 8001dea:	4b31      	ldr	r3, [pc, #196]	@ (8001eb0 <IMA_voidProcessNeighbor+0x124>)
 8001dec:	2201      	movs	r2, #1
 8001dee:	701a      	strb	r2, [r3, #0]

  /* ---- Priority Decision: who passes first? ---- */
  float delay;

  if (Host_Speed > n->speed)
 8001df0:	687b      	ldr	r3, [r7, #4]
 8001df2:	685b      	ldr	r3, [r3, #4]
 8001df4:	4a2f      	ldr	r2, [pc, #188]	@ (8001eb4 <IMA_voidProcessNeighbor+0x128>)
 8001df6:	6812      	ldr	r2, [r2, #0]
 8001df8:	4611      	mov	r1, r2
 8001dfa:	4618      	mov	r0, r3
 8001dfc:	f7ff f89e 	bl	8000f3c <__aeabi_fcmplt>
 8001e00:	4603      	mov	r3, r0
 8001e02:	2b00      	cmp	r3, #0
 8001e04:	d01e      	beq.n	8001e44 <IMA_voidProcessNeighbor+0xb8>
    /*
     * I am faster → I pass first → other should wait.
     * Compute other's delay (time for OTHER to reach intersection).
     * No alert needed for me.
     */
    if (n->speed > 0.0f)
 8001e06:	687b      	ldr	r3, [r7, #4]
 8001e08:	685b      	ldr	r3, [r3, #4]
 8001e0a:	f04f 0100 	mov.w	r1, #0
 8001e0e:	4618      	mov	r0, r3
 8001e10:	f7ff f8b2 	bl	8000f78 <__aeabi_fcmpgt>
 8001e14:	4603      	mov	r3, r0
 8001e16:	2b00      	cmp	r3, #0
 8001e18:	d100      	bne.n	8001e1c <IMA_voidProcessNeighbor+0x90>
      delay = n->distance_to_intersection / n->speed;
    }
    else
    {
      /* Other vehicle is stopped → no collision risk from their side */
      return;
 8001e1a:	e042      	b.n	8001ea2 <IMA_voidProcessNeighbor+0x116>
      delay = n->distance_to_intersection / n->speed;
 8001e1c:	687b      	ldr	r3, [r7, #4]
 8001e1e:	695a      	ldr	r2, [r3, #20]
 8001e20:	687b      	ldr	r3, [r7, #4]
 8001e22:	685b      	ldr	r3, [r3, #4]
 8001e24:	4619      	mov	r1, r3
 8001e26:	4610      	mov	r0, r2
 8001e28:	f7fe ff9e 	bl	8000d68 <__aeabi_fdiv>
 8001e2c:	4603      	mov	r3, r0
 8001e2e:	60fb      	str	r3, [r7, #12]
    }

    /* Even though I pass first, evaluate if it's still tight */
    RiskLevel_t level = SafetyEngine_EvaluateRisk(delay, IMA_WARNING_DELAY, IMA_CRITICAL_DELAY);
 8001e30:	f04f 4280 	mov.w	r2, #1073741824	@ 0x40000000
 8001e34:	f04f 4181 	mov.w	r1, #1082130432	@ 0x40800000
 8001e38:	68f8      	ldr	r0, [r7, #12]
 8001e3a:	f000 fb79 	bl	8002530 <SafetyEngine_EvaluateRisk>
 8001e3e:	4603      	mov	r3, r0
 8001e40:	72bb      	strb	r3, [r7, #10]
 8001e42:	e02e      	b.n	8001ea2 <IMA_voidProcessNeighbor+0x116>
    /*
     * Other is faster (or equal speed) → I should wait.
     * Compute MY delay (time for ME to reach intersection).
     * This is the dangerous case — I need a warning.
     */
    IMA_IShouldWait = 1;
 8001e44:	4b1c      	ldr	r3, [pc, #112]	@ (8001eb8 <IMA_voidProcessNeighbor+0x12c>)
 8001e46:	2201      	movs	r2, #1
 8001e48:	701a      	strb	r2, [r3, #0]

    if (Host_Speed > 0.0f)
 8001e4a:	4b1a      	ldr	r3, [pc, #104]	@ (8001eb4 <IMA_voidProcessNeighbor+0x128>)
 8001e4c:	681b      	ldr	r3, [r3, #0]
 8001e4e:	f04f 0100 	mov.w	r1, #0
 8001e52:	4618      	mov	r0, r3
 8001e54:	f7ff f890 	bl	8000f78 <__aeabi_fcmpgt>
 8001e58:	4603      	mov	r3, r0
 8001e5a:	2b00      	cmp	r3, #0
 8001e5c:	d100      	bne.n	8001e60 <IMA_voidProcessNeighbor+0xd4>
      delay = Host_DistToIntersection / Host_Speed;
    }
    else
    {
      /* I am stopped → safe, no collision */
      return;
 8001e5e:	e020      	b.n	8001ea2 <IMA_voidProcessNeighbor+0x116>
      delay = Host_DistToIntersection / Host_Speed;
 8001e60:	4b11      	ldr	r3, [pc, #68]	@ (8001ea8 <IMA_voidProcessNeighbor+0x11c>)
 8001e62:	681b      	ldr	r3, [r3, #0]
 8001e64:	4a13      	ldr	r2, [pc, #76]	@ (8001eb4 <IMA_voidProcessNeighbor+0x128>)
 8001e66:	6812      	ldr	r2, [r2, #0]
 8001e68:	4611      	mov	r1, r2
 8001e6a:	4618      	mov	r0, r3
 8001e6c:	f7fe ff7c 	bl	8000d68 <__aeabi_fdiv>
 8001e70:	4603      	mov	r3, r0
 8001e72:	60fb      	str	r3, [r7, #12]
    }

    RiskLevel_t level = SafetyEngine_EvaluateRisk(delay, IMA_WARNING_DELAY, IMA_CRITICAL_DELAY);
 8001e74:	f04f 4280 	mov.w	r2, #1073741824	@ 0x40000000
 8001e78:	f04f 4181 	mov.w	r1, #1082130432	@ 0x40800000
 8001e7c:	68f8      	ldr	r0, [r7, #12]
 8001e7e:	f000 fb57 	bl	8002530 <SafetyEngine_EvaluateRisk>
 8001e82:	4603      	mov	r3, r0
 8001e84:	72fb      	strb	r3, [r7, #11]

    /* Track worst risk across all crossing neighbors (conservative) */
    if (level > IMA_WorstRisk)
 8001e86:	4b0d      	ldr	r3, [pc, #52]	@ (8001ebc <IMA_voidProcessNeighbor+0x130>)
 8001e88:	781b      	ldrb	r3, [r3, #0]
 8001e8a:	7afa      	ldrb	r2, [r7, #11]
 8001e8c:	429a      	cmp	r2, r3
 8001e8e:	d908      	bls.n	8001ea2 <IMA_voidProcessNeighbor+0x116>
    {
      IMA_WorstRisk = level;
 8001e90:	4a0a      	ldr	r2, [pc, #40]	@ (8001ebc <IMA_voidProcessNeighbor+0x130>)
 8001e92:	7afb      	ldrb	r3, [r7, #11]
 8001e94:	7013      	strb	r3, [r2, #0]
 8001e96:	e004      	b.n	8001ea2 <IMA_voidProcessNeighbor+0x116>
    return;
 8001e98:	bf00      	nop
 8001e9a:	e002      	b.n	8001ea2 <IMA_voidProcessNeighbor+0x116>
    return;
 8001e9c:	bf00      	nop
 8001e9e:	e000      	b.n	8001ea2 <IMA_voidProcessNeighbor+0x116>
    return;
 8001ea0:	bf00      	nop
    }
  }
}
 8001ea2:	3710      	adds	r7, #16
 8001ea4:	46bd      	mov	sp, r7
 8001ea6:	bd80      	pop	{r7, pc}
 8001ea8:	20000480 	.word	0x20000480
 8001eac:	44fa0000 	.word	0x44fa0000
 8001eb0:	2000045a 	.word	0x2000045a
 8001eb4:	20000478 	.word	0x20000478
 8001eb8:	2000045b 	.word	0x2000045b
 8001ebc:	2000045c 	.word	0x2000045c

08001ec0 <IMA_voidEndCycle>:
 *   3. Risk level > SAFE (I'm approaching too fast)
 *
 * If I'm the faster vehicle, no alert — I pass first.
 */
void IMA_voidEndCycle(void)
{
 8001ec0:	b580      	push	{r7, lr}
 8001ec2:	af00      	add	r7, sp, #0
  if (IMA_CrossingDetected && IMA_IShouldWait && (IMA_WorstRisk > RISK_SAFE))
 8001ec4:	4b0e      	ldr	r3, [pc, #56]	@ (8001f00 <IMA_voidEndCycle+0x40>)
 8001ec6:	781b      	ldrb	r3, [r3, #0]
 8001ec8:	2b00      	cmp	r3, #0
 8001eca:	d011      	beq.n	8001ef0 <IMA_voidEndCycle+0x30>
 8001ecc:	4b0d      	ldr	r3, [pc, #52]	@ (8001f04 <IMA_voidEndCycle+0x44>)
 8001ece:	781b      	ldrb	r3, [r3, #0]
 8001ed0:	2b00      	cmp	r3, #0
 8001ed2:	d00d      	beq.n	8001ef0 <IMA_voidEndCycle+0x30>
 8001ed4:	4b0c      	ldr	r3, [pc, #48]	@ (8001f08 <IMA_voidEndCycle+0x48>)
 8001ed6:	781b      	ldrb	r3, [r3, #0]
 8001ed8:	2b00      	cmp	r3, #0
 8001eda:	d009      	beq.n	8001ef0 <IMA_voidEndCycle+0x30>
  {
    /* Update flag for DSRC broadcast */
    IMA_CurrentFlag = (uint8_t)IMA_WorstRisk;
 8001edc:	4b0a      	ldr	r3, [pc, #40]	@ (8001f08 <IMA_voidEndCycle+0x48>)
 8001ede:	781a      	ldrb	r2, [r3, #0]
 8001ee0:	4b0a      	ldr	r3, [pc, #40]	@ (8001f0c <IMA_voidEndCycle+0x4c>)
 8001ee2:	701a      	strb	r2, [r3, #0]

    /* Activate alert — "WAIT - CROSS TRAFFIC" */
    IMA_ActivateAlert(IMA_WorstRisk);
 8001ee4:	4b08      	ldr	r3, [pc, #32]	@ (8001f08 <IMA_voidEndCycle+0x48>)
 8001ee6:	781b      	ldrb	r3, [r3, #0]
 8001ee8:	4618      	mov	r0, r3
 8001eea:	f000 f81b 	bl	8001f24 <IMA_ActivateAlert>
 8001eee:	e005      	b.n	8001efc <IMA_voidEndCycle+0x3c>
  }
  else
  {
    /* All clear — no intersection collision risk */
    IMA_CurrentFlag = 0;
 8001ef0:	4b06      	ldr	r3, [pc, #24]	@ (8001f0c <IMA_voidEndCycle+0x4c>)
 8001ef2:	2200      	movs	r2, #0
 8001ef4:	701a      	strb	r2, [r3, #0]
    IMA_DeactivateAlert();
 8001ef6:	f000 f81f 	bl	8001f38 <IMA_DeactivateAlert>
  }
}
 8001efa:	bf00      	nop
 8001efc:	bf00      	nop
 8001efe:	bd80      	pop	{r7, pc}
 8001f00:	2000045a 	.word	0x2000045a
 8001f04:	2000045b 	.word	0x2000045b
 8001f08:	2000045c 	.word	0x2000045c
 8001f0c:	20000459 	.word	0x20000459

08001f10 <IMA_u8GetFlag>:
  IMA_voidEndCycle();
}

/* ============ Public Getter ============ */
uint8_t IMA_u8GetFlag(void)
{
 8001f10:	b480      	push	{r7}
 8001f12:	af00      	add	r7, sp, #0
  return IMA_CurrentFlag;
 8001f14:	4b02      	ldr	r3, [pc, #8]	@ (8001f20 <IMA_u8GetFlag+0x10>)
 8001f16:	781b      	ldrb	r3, [r3, #0]
}
 8001f18:	4618      	mov	r0, r3
 8001f1a:	46bd      	mov	sp, r7
 8001f1c:	bc80      	pop	{r7}
 8001f1e:	4770      	bx	lr
 8001f20:	20000459 	.word	0x20000459

08001f24 <IMA_ActivateAlert>:

/**
 * @brief Activate IMA alert — warn driver to WAIT for cross traffic
 */
static void IMA_ActivateAlert(RiskLevel_t level)
{
 8001f24:	b480      	push	{r7}
 8001f26:	b083      	sub	sp, #12
 8001f28:	af00      	add	r7, sp, #0
 8001f2a:	4603      	mov	r3, r0
 8001f2c:	71fb      	strb	r3, [r7, #7]
  else
  {
    /* BUZZER_SHORT_BEEP(); */
  }
#endif
}
 8001f2e:	bf00      	nop
 8001f30:	370c      	adds	r7, #12
 8001f32:	46bd      	mov	sp, r7
 8001f34:	bc80      	pop	{r7}
 8001f36:	4770      	bx	lr

08001f38 <IMA_DeactivateAlert>:

/**
 * @brief Deactivate IMA alert — intersection is clear
 */
static void IMA_DeactivateAlert(void)
{
 8001f38:	b480      	push	{r7}
 8001f3a:	af00      	add	r7, sp, #0
#endif

#if IMA_ENABLE_BUZZER
  /* BUZZER_OFF(); */
#endif
 8001f3c:	bf00      	nop
 8001f3e:	46bd      	mov	sp, r7
 8001f40:	bc80      	pop	{r7}
 8001f42:	4770      	bx	lr

08001f44 <NVIC_vEnableIRQ>:
 * @brief Enable an IRQ number in the NVIC.
 * @param Copy_u8IRQNumber IRQ number to enable.
 * @return ErrorState_t Returns OK if successful, NOK if IRQ number is invalid.
 */
ErrorState_t NVIC_vEnableIRQ(uint8_t Copy_u8IRQNumber)
{
 8001f44:	b480      	push	{r7}
 8001f46:	b085      	sub	sp, #20
 8001f48:	af00      	add	r7, sp, #0
 8001f4a:	4603      	mov	r3, r0
 8001f4c:	71fb      	strb	r3, [r7, #7]
  uint8_t local_u8ErrorState = OK;
 8001f4e:	2300      	movs	r3, #0
 8001f50:	73fb      	strb	r3, [r7, #15]
  if (Copy_u8IRQNumber <= NVIC_FMPI2C1_ER)
 8001f52:	79fb      	ldrb	r3, [r7, #7]
 8001f54:	2b60      	cmp	r3, #96	@ 0x60
 8001f56:	d80d      	bhi.n	8001f74 <NVIC_vEnableIRQ+0x30>
    {
    MNVIC->ISER[(((uint32_t)Copy_u8IRQNumber) >> 5UL)] = (uint32_t)(1UL << (((uint32_t)Copy_u8IRQNumber) & 0x1FUL));
 8001f58:	79fb      	ldrb	r3, [r7, #7]
 8001f5a:	f003 031f 	and.w	r3, r3, #31
 8001f5e:	4909      	ldr	r1, [pc, #36]	@ (8001f84 <NVIC_vEnableIRQ+0x40>)
 8001f60:	79fa      	ldrb	r2, [r7, #7]
 8001f62:	0952      	lsrs	r2, r2, #5
 8001f64:	b2d2      	uxtb	r2, r2
 8001f66:	4610      	mov	r0, r2
 8001f68:	2201      	movs	r2, #1
 8001f6a:	fa02 f303 	lsl.w	r3, r2, r3
 8001f6e:	f841 3020 	str.w	r3, [r1, r0, lsl #2]
 8001f72:	e001      	b.n	8001f78 <NVIC_vEnableIRQ+0x34>
    }
    else
    {
    local_u8ErrorState = NOK;
 8001f74:	2301      	movs	r3, #1
 8001f76:	73fb      	strb	r3, [r7, #15]
    }
  return local_u8ErrorState;
 8001f78:	7bfb      	ldrb	r3, [r7, #15]
}
 8001f7a:	4618      	mov	r0, r3
 8001f7c:	3714      	adds	r7, #20
 8001f7e:	46bd      	mov	sp, r7
 8001f80:	bc80      	pop	{r7}
 8001f82:	4770      	bx	lr
 8001f84:	e000e100 	.word	0xe000e100

08001f88 <RCC_enumAHPPerSts>:
 * @details
 *         - Controls bits in AHB1ENR, AHB2ENR, AHB3ENR registers
 *         - Enables/disables clock for specific peripherals on AHB buses
 */
ErrorState_t RCC_enumAHPPerSts(uint8_t Copy_u8Bus, uint8_t Copy_u8AHPPer, uint8_t Copy_u8Status)
{
 8001f88:	b480      	push	{r7}
 8001f8a:	b085      	sub	sp, #20
 8001f8c:	af00      	add	r7, sp, #0
 8001f8e:	4603      	mov	r3, r0
 8001f90:	71fb      	strb	r3, [r7, #7]
 8001f92:	460b      	mov	r3, r1
 8001f94:	71bb      	strb	r3, [r7, #6]
 8001f96:	4613      	mov	r3, r2
 8001f98:	717b      	strb	r3, [r7, #5]
  ErrorState_t Local_u8ErrorState = OK;
 8001f9a:	2300      	movs	r3, #0
 8001f9c:	73fb      	strb	r3, [r7, #15]
  if (RCC_u8State == IDLE)
 8001f9e:	4b3c      	ldr	r3, [pc, #240]	@ (8002090 <RCC_enumAHPPerSts+0x108>)
 8001fa0:	781b      	ldrb	r3, [r3, #0]
 8001fa2:	2b00      	cmp	r3, #0
 8001fa4:	d16c      	bne.n	8002080 <RCC_enumAHPPerSts+0xf8>
  {
    RCC_u8State = BUSY;
 8001fa6:	4b3a      	ldr	r3, [pc, #232]	@ (8002090 <RCC_enumAHPPerSts+0x108>)
 8001fa8:	2201      	movs	r2, #1
 8001faa:	701a      	strb	r2, [r3, #0]

    switch (Copy_u8Bus)
 8001fac:	79fb      	ldrb	r3, [r7, #7]
 8001fae:	2b02      	cmp	r3, #2
 8001fb0:	d040      	beq.n	8002034 <RCC_enumAHPPerSts+0xac>
 8001fb2:	2b02      	cmp	r3, #2
 8001fb4:	dc60      	bgt.n	8002078 <RCC_enumAHPPerSts+0xf0>
 8001fb6:	2b00      	cmp	r3, #0
 8001fb8:	d002      	beq.n	8001fc0 <RCC_enumAHPPerSts+0x38>
 8001fba:	2b01      	cmp	r3, #1
 8001fbc:	d01d      	beq.n	8001ffa <RCC_enumAHPPerSts+0x72>
 8001fbe:	e05b      	b.n	8002078 <RCC_enumAHPPerSts+0xf0>
    {
    case RCC_AHB1:
      /* Configure AHB1 peripheral clock */
      if (Copy_u8Status == RCC_PER_ON)
 8001fc0:	797b      	ldrb	r3, [r7, #5]
 8001fc2:	2b00      	cmp	r3, #0
 8001fc4:	d10a      	bne.n	8001fdc <RCC_enumAHPPerSts+0x54>
      {
        SET_BIT(MRCC->AHP1ENR, Copy_u8AHPPer);
 8001fc6:	4b33      	ldr	r3, [pc, #204]	@ (8002094 <RCC_enumAHPPerSts+0x10c>)
 8001fc8:	6b1b      	ldr	r3, [r3, #48]	@ 0x30
 8001fca:	79ba      	ldrb	r2, [r7, #6]
 8001fcc:	2101      	movs	r1, #1
 8001fce:	fa01 f202 	lsl.w	r2, r1, r2
 8001fd2:	4611      	mov	r1, r2
 8001fd4:	4a2f      	ldr	r2, [pc, #188]	@ (8002094 <RCC_enumAHPPerSts+0x10c>)
 8001fd6:	430b      	orrs	r3, r1
 8001fd8:	6313      	str	r3, [r2, #48]	@ 0x30
      }
      else if (Copy_u8Status == RCC_PER_OFF)
      {
        CLR_BIT(MRCC->AHP1ENR, Copy_u8AHPPer);
      }
      break;
 8001fda:	e048      	b.n	800206e <RCC_enumAHPPerSts+0xe6>
      else if (Copy_u8Status == RCC_PER_OFF)
 8001fdc:	797b      	ldrb	r3, [r7, #5]
 8001fde:	2b01      	cmp	r3, #1
 8001fe0:	d145      	bne.n	800206e <RCC_enumAHPPerSts+0xe6>
        CLR_BIT(MRCC->AHP1ENR, Copy_u8AHPPer);
 8001fe2:	4b2c      	ldr	r3, [pc, #176]	@ (8002094 <RCC_enumAHPPerSts+0x10c>)
 8001fe4:	6b1b      	ldr	r3, [r3, #48]	@ 0x30
 8001fe6:	79ba      	ldrb	r2, [r7, #6]
 8001fe8:	2101      	movs	r1, #1
 8001fea:	fa01 f202 	lsl.w	r2, r1, r2
 8001fee:	43d2      	mvns	r2, r2
 8001ff0:	4611      	mov	r1, r2
 8001ff2:	4a28      	ldr	r2, [pc, #160]	@ (8002094 <RCC_enumAHPPerSts+0x10c>)
 8001ff4:	400b      	ands	r3, r1
 8001ff6:	6313      	str	r3, [r2, #48]	@ 0x30
      break;
 8001ff8:	e039      	b.n	800206e <RCC_enumAHPPerSts+0xe6>
    case RCC_AHB2:
      /* Configure AHB2 peripheral clock */
      if (Copy_u8Status == RCC_PER_ON)
 8001ffa:	797b      	ldrb	r3, [r7, #5]
 8001ffc:	2b00      	cmp	r3, #0
 8001ffe:	d10a      	bne.n	8002016 <RCC_enumAHPPerSts+0x8e>
      {
        SET_BIT(MRCC->AHP2ENR, Copy_u8AHPPer);
 8002000:	4b24      	ldr	r3, [pc, #144]	@ (8002094 <RCC_enumAHPPerSts+0x10c>)
 8002002:	6b5b      	ldr	r3, [r3, #52]	@ 0x34
 8002004:	79ba      	ldrb	r2, [r7, #6]
 8002006:	2101      	movs	r1, #1
 8002008:	fa01 f202 	lsl.w	r2, r1, r2
 800200c:	4611      	mov	r1, r2
 800200e:	4a21      	ldr	r2, [pc, #132]	@ (8002094 <RCC_enumAHPPerSts+0x10c>)
 8002010:	430b      	orrs	r3, r1
 8002012:	6353      	str	r3, [r2, #52]	@ 0x34
      }
      else if (Copy_u8Status == RCC_PER_OFF)
      {
        CLR_BIT(MRCC->AHP2ENR, Copy_u8AHPPer);
      }
      break;
 8002014:	e02d      	b.n	8002072 <RCC_enumAHPPerSts+0xea>
      else if (Copy_u8Status == RCC_PER_OFF)
 8002016:	797b      	ldrb	r3, [r7, #5]
 8002018:	2b01      	cmp	r3, #1
 800201a:	d12a      	bne.n	8002072 <RCC_enumAHPPerSts+0xea>
        CLR_BIT(MRCC->AHP2ENR, Copy_u8AHPPer);
 800201c:	4b1d      	ldr	r3, [pc, #116]	@ (8002094 <RCC_enumAHPPerSts+0x10c>)
 800201e:	6b5b      	ldr	r3, [r3, #52]	@ 0x34
 8002020:	79ba      	ldrb	r2, [r7, #6]
 8002022:	2101      	movs	r1, #1
 8002024:	fa01 f202 	lsl.w	r2, r1, r2
 8002028:	43d2      	mvns	r2, r2
 800202a:	4611      	mov	r1, r2
 800202c:	4a19      	ldr	r2, [pc, #100]	@ (8002094 <RCC_enumAHPPerSts+0x10c>)
 800202e:	400b      	ands	r3, r1
 8002030:	6353      	str	r3, [r2, #52]	@ 0x34
      break;
 8002032:	e01e      	b.n	8002072 <RCC_enumAHPPerSts+0xea>
    case RCC_AHB3:
      /* Configure AHB3 peripheral clock */
      if (Copy_u8Status == RCC_PER_ON)
 8002034:	797b      	ldrb	r3, [r7, #5]
 8002036:	2b00      	cmp	r3, #0
 8002038:	d10a      	bne.n	8002050 <RCC_enumAHPPerSts+0xc8>
      {
        SET_BIT(MRCC->AHP3ENR, Copy_u8AHPPer);
 800203a:	4b16      	ldr	r3, [pc, #88]	@ (8002094 <RCC_enumAHPPerSts+0x10c>)
 800203c:	6b9b      	ldr	r3, [r3, #56]	@ 0x38
 800203e:	79ba      	ldrb	r2, [r7, #6]
 8002040:	2101      	movs	r1, #1
 8002042:	fa01 f202 	lsl.w	r2, r1, r2
 8002046:	4611      	mov	r1, r2
 8002048:	4a12      	ldr	r2, [pc, #72]	@ (8002094 <RCC_enumAHPPerSts+0x10c>)
 800204a:	430b      	orrs	r3, r1
 800204c:	6393      	str	r3, [r2, #56]	@ 0x38
      }
      else if (Copy_u8Status == RCC_PER_OFF)
      {
        CLR_BIT(MRCC->AHP3ENR, Copy_u8AHPPer);
      }
      break;
 800204e:	e012      	b.n	8002076 <RCC_enumAHPPerSts+0xee>
      else if (Copy_u8Status == RCC_PER_OFF)
 8002050:	797b      	ldrb	r3, [r7, #5]
 8002052:	2b01      	cmp	r3, #1
 8002054:	d10f      	bne.n	8002076 <RCC_enumAHPPerSts+0xee>
        CLR_BIT(MRCC->AHP3ENR, Copy_u8AHPPer);
 8002056:	4b0f      	ldr	r3, [pc, #60]	@ (8002094 <RCC_enumAHPPerSts+0x10c>)
 8002058:	6b9b      	ldr	r3, [r3, #56]	@ 0x38
 800205a:	79ba      	ldrb	r2, [r7, #6]
 800205c:	2101      	movs	r1, #1
 800205e:	fa01 f202 	lsl.w	r2, r1, r2
 8002062:	43d2      	mvns	r2, r2
 8002064:	4611      	mov	r1, r2
 8002066:	4a0b      	ldr	r2, [pc, #44]	@ (8002094 <RCC_enumAHPPerSts+0x10c>)
 8002068:	400b      	ands	r3, r1
 800206a:	6393      	str	r3, [r2, #56]	@ 0x38
      break;
 800206c:	e003      	b.n	8002076 <RCC_enumAHPPerSts+0xee>
      break;
 800206e:	bf00      	nop
 8002070:	e002      	b.n	8002078 <RCC_enumAHPPerSts+0xf0>
      break;
 8002072:	bf00      	nop
 8002074:	e000      	b.n	8002078 <RCC_enumAHPPerSts+0xf0>
      break;
 8002076:	bf00      	nop
    }

    RCC_u8State = IDLE;
 8002078:	4b05      	ldr	r3, [pc, #20]	@ (8002090 <RCC_enumAHPPerSts+0x108>)
 800207a:	2200      	movs	r2, #0
 800207c:	701a      	strb	r2, [r3, #0]
 800207e:	e001      	b.n	8002084 <RCC_enumAHPPerSts+0xfc>
  }
  else
  {
    Local_u8ErrorState = BUSY_STATE;
 8002080:	2303      	movs	r3, #3
 8002082:	73fb      	strb	r3, [r7, #15]
  }

  return Local_u8ErrorState;
 8002084:	7bfb      	ldrb	r3, [r7, #15]
}
 8002086:	4618      	mov	r0, r3
 8002088:	3714      	adds	r7, #20
 800208a:	46bd      	mov	sp, r7
 800208c:	bc80      	pop	{r7}
 800208e:	4770      	bx	lr
 8002090:	2000045d 	.word	0x2000045d
 8002094:	40023800 	.word	0x40023800

08002098 <RCC_enumABPPerSts>:
 * @details
 *         - Controls bits in APB1ENR and APB2ENR registers
 *         - Enables/disables clock for specific peripherals on APB buses
 */
ErrorState_t RCC_enumABPPerSts(uint8_t Copy_u8Bus, uint8_t Copy_u8ABPPer, uint8_t Copy_u8Status)
{
 8002098:	b480      	push	{r7}
 800209a:	b085      	sub	sp, #20
 800209c:	af00      	add	r7, sp, #0
 800209e:	4603      	mov	r3, r0
 80020a0:	71fb      	strb	r3, [r7, #7]
 80020a2:	460b      	mov	r3, r1
 80020a4:	71bb      	strb	r3, [r7, #6]
 80020a6:	4613      	mov	r3, r2
 80020a8:	717b      	strb	r3, [r7, #5]
  ErrorState_t Local_u8ErrorState = OK;
 80020aa:	2300      	movs	r3, #0
 80020ac:	73fb      	strb	r3, [r7, #15]

  if (RCC_u8State == IDLE)
 80020ae:	4b2b      	ldr	r3, [pc, #172]	@ (800215c <RCC_enumABPPerSts+0xc4>)
 80020b0:	781b      	ldrb	r3, [r3, #0]
 80020b2:	2b00      	cmp	r3, #0
 80020b4:	d149      	bne.n	800214a <RCC_enumABPPerSts+0xb2>
  {
    RCC_u8State = BUSY;
 80020b6:	4b29      	ldr	r3, [pc, #164]	@ (800215c <RCC_enumABPPerSts+0xc4>)
 80020b8:	2201      	movs	r2, #1
 80020ba:	701a      	strb	r2, [r3, #0]
    switch (Copy_u8Bus)
 80020bc:	79fb      	ldrb	r3, [r7, #7]
 80020be:	2b03      	cmp	r3, #3
 80020c0:	d002      	beq.n	80020c8 <RCC_enumABPPerSts+0x30>
 80020c2:	2b04      	cmp	r3, #4
 80020c4:	d01d      	beq.n	8002102 <RCC_enumABPPerSts+0x6a>
      {
      }
      break;

    default:
      break;
 80020c6:	e03c      	b.n	8002142 <RCC_enumABPPerSts+0xaa>
      if (Copy_u8Status == RCC_PER_ON)
 80020c8:	797b      	ldrb	r3, [r7, #5]
 80020ca:	2b00      	cmp	r3, #0
 80020cc:	d10a      	bne.n	80020e4 <RCC_enumABPPerSts+0x4c>
        SET_BIT(MRCC->APB1ENR, Copy_u8ABPPer);
 80020ce:	4b24      	ldr	r3, [pc, #144]	@ (8002160 <RCC_enumABPPerSts+0xc8>)
 80020d0:	6c1b      	ldr	r3, [r3, #64]	@ 0x40
 80020d2:	79ba      	ldrb	r2, [r7, #6]
 80020d4:	2101      	movs	r1, #1
 80020d6:	fa01 f202 	lsl.w	r2, r1, r2
 80020da:	4611      	mov	r1, r2
 80020dc:	4a20      	ldr	r2, [pc, #128]	@ (8002160 <RCC_enumABPPerSts+0xc8>)
 80020de:	430b      	orrs	r3, r1
 80020e0:	6413      	str	r3, [r2, #64]	@ 0x40
      break;
 80020e2:	e02b      	b.n	800213c <RCC_enumABPPerSts+0xa4>
      else if (Copy_u8Status == RCC_PER_OFF)
 80020e4:	797b      	ldrb	r3, [r7, #5]
 80020e6:	2b01      	cmp	r3, #1
 80020e8:	d128      	bne.n	800213c <RCC_enumABPPerSts+0xa4>
        CLR_BIT(MRCC->APB1ENR, Copy_u8ABPPer);
 80020ea:	4b1d      	ldr	r3, [pc, #116]	@ (8002160 <RCC_enumABPPerSts+0xc8>)
 80020ec:	6c1b      	ldr	r3, [r3, #64]	@ 0x40
 80020ee:	79ba      	ldrb	r2, [r7, #6]
 80020f0:	2101      	movs	r1, #1
 80020f2:	fa01 f202 	lsl.w	r2, r1, r2
 80020f6:	43d2      	mvns	r2, r2
 80020f8:	4611      	mov	r1, r2
 80020fa:	4a19      	ldr	r2, [pc, #100]	@ (8002160 <RCC_enumABPPerSts+0xc8>)
 80020fc:	400b      	ands	r3, r1
 80020fe:	6413      	str	r3, [r2, #64]	@ 0x40
      break;
 8002100:	e01c      	b.n	800213c <RCC_enumABPPerSts+0xa4>
      if (Copy_u8Status == RCC_PER_ON)
 8002102:	797b      	ldrb	r3, [r7, #5]
 8002104:	2b00      	cmp	r3, #0
 8002106:	d10a      	bne.n	800211e <RCC_enumABPPerSts+0x86>
        SET_BIT(MRCC->APB2ENR, Copy_u8ABPPer);
 8002108:	4b15      	ldr	r3, [pc, #84]	@ (8002160 <RCC_enumABPPerSts+0xc8>)
 800210a:	6c5b      	ldr	r3, [r3, #68]	@ 0x44
 800210c:	79ba      	ldrb	r2, [r7, #6]
 800210e:	2101      	movs	r1, #1
 8002110:	fa01 f202 	lsl.w	r2, r1, r2
 8002114:	4611      	mov	r1, r2
 8002116:	4a12      	ldr	r2, [pc, #72]	@ (8002160 <RCC_enumABPPerSts+0xc8>)
 8002118:	430b      	orrs	r3, r1
 800211a:	6453      	str	r3, [r2, #68]	@ 0x44
      break;
 800211c:	e010      	b.n	8002140 <RCC_enumABPPerSts+0xa8>
      else if (Copy_u8Status == RCC_PER_OFF)
 800211e:	797b      	ldrb	r3, [r7, #5]
 8002120:	2b01      	cmp	r3, #1
 8002122:	d10d      	bne.n	8002140 <RCC_enumABPPerSts+0xa8>
        CLR_BIT(MRCC->APB2ENR, Copy_u8ABPPer);
 8002124:	4b0e      	ldr	r3, [pc, #56]	@ (8002160 <RCC_enumABPPerSts+0xc8>)
 8002126:	6c5b      	ldr	r3, [r3, #68]	@ 0x44
 8002128:	79ba      	ldrb	r2, [r7, #6]
 800212a:	2101      	movs	r1, #1
 800212c:	fa01 f202 	lsl.w	r2, r1, r2
 8002130:	43d2      	mvns	r2, r2
 8002132:	4611      	mov	r1, r2
 8002134:	4a0a      	ldr	r2, [pc, #40]	@ (8002160 <RCC_enumABPPerSts+0xc8>)
 8002136:	400b      	ands	r3, r1
 8002138:	6453      	str	r3, [r2, #68]	@ 0x44
      break;
 800213a:	e001      	b.n	8002140 <RCC_enumABPPerSts+0xa8>
      break;
 800213c:	bf00      	nop
 800213e:	e000      	b.n	8002142 <RCC_enumABPPerSts+0xaa>
      break;
 8002140:	bf00      	nop
    }

    RCC_u8State = IDLE;
 8002142:	4b06      	ldr	r3, [pc, #24]	@ (800215c <RCC_enumABPPerSts+0xc4>)
 8002144:	2200      	movs	r2, #0
 8002146:	701a      	strb	r2, [r3, #0]
 8002148:	e001      	b.n	800214e <RCC_enumABPPerSts+0xb6>
  }
  else
  {
    Local_u8ErrorState = BUSY_STATE;
 800214a:	2303      	movs	r3, #3
 800214c:	73fb      	strb	r3, [r7, #15]
  }

  return Local_u8ErrorState;
 800214e:	7bfb      	ldrb	r3, [r7, #15]
}
 8002150:	4618      	mov	r0, r3
 8002152:	3714      	adds	r7, #20
 8002154:	46bd      	mov	sp, r7
 8002156:	bc80      	pop	{r7}
 8002158:	4770      	bx	lr
 800215a:	bf00      	nop
 800215c:	2000045d 	.word	0x2000045d
 8002160:	40023800 	.word	0x40023800

08002164 <SYSTIC_vInit>:
 *
 * @note This function must be called before using any other SYSTIC functions
 * @warning Ensure system clock is properly configured before calling this function
 */
void SYSTIC_vInit(void)
{
 8002164:	b480      	push	{r7}
 8002166:	af00      	add	r7, sp, #0
  /* Configure clock source */
#if SYSTIC_CLKSOURCE == CLK_SOURCE_AHB
  /* Use processor clock (AHB) for maximum precision */
  MSYSTIC->CTRL |= (1u << SYSTIC_CTRL_CLKSOURCE);
 8002168:	4b07      	ldr	r3, [pc, #28]	@ (8002188 <SYSTIC_vInit+0x24>)
 800216a:	681b      	ldr	r3, [r3, #0]
 800216c:	4a06      	ldr	r2, [pc, #24]	@ (8002188 <SYSTIC_vInit+0x24>)
 800216e:	f043 0304 	orr.w	r3, r3, #4
 8002172:	6013      	str	r3, [r2, #0]
#if SYSTIC_TICKINT == ENABLE
  /* Enable SysTick exception generation */
  MSYSTIC->CTRL |= (1u << SYSTIC_CTRL_TICKINT);
#elif SYSTIC_TICKINT == DISABLE
  /* Disable SysTick exception generation (polling mode) */
  MSYSTIC->CTRL &= (~(1u << SYSTIC_CTRL_TICKINT));
 8002174:	4b04      	ldr	r3, [pc, #16]	@ (8002188 <SYSTIC_vInit+0x24>)
 8002176:	681b      	ldr	r3, [r3, #0]
 8002178:	4a03      	ldr	r2, [pc, #12]	@ (8002188 <SYSTIC_vInit+0x24>)
 800217a:	f023 0302 	bic.w	r3, r3, #2
 800217e:	6013      	str	r3, [r2, #0]
#else
#error "Invalid SYSTIC Interrupt Configuration"
#endif
}
 8002180:	bf00      	nop
 8002182:	46bd      	mov	sp, r7
 8002184:	bc80      	pop	{r7}
 8002186:	4770      	bx	lr
 8002188:	e000e010 	.word	0xe000e010

0800218c <SYSTIC_vDisable>:
 * @brief Disable the SysTick timer
 * @details Stops the timer by clearing the ENABLE bit in the CTRL register
 *          This function is used internally by delay functions
 */
static void SYSTIC_vDisable(void)
{
 800218c:	b480      	push	{r7}
 800218e:	af00      	add	r7, sp, #0
  MSYSTIC->CTRL &= (~(1u << SYSTIC_CTRL_ENABLE));
 8002190:	4b04      	ldr	r3, [pc, #16]	@ (80021a4 <SYSTIC_vDisable+0x18>)
 8002192:	681b      	ldr	r3, [r3, #0]
 8002194:	4a03      	ldr	r2, [pc, #12]	@ (80021a4 <SYSTIC_vDisable+0x18>)
 8002196:	f023 0301 	bic.w	r3, r3, #1
 800219a:	6013      	str	r3, [r2, #0]
}
 800219c:	bf00      	nop
 800219e:	46bd      	mov	sp, r7
 80021a0:	bc80      	pop	{r7}
 80021a2:	4770      	bx	lr
 80021a4:	e000e010 	.word	0xe000e010

080021a8 <SYSTIC_vEnable>:
 *
 * @details Starts the timer by setting the ENABLE bit in the CTRL register
 *          This function is used internally by delay functions
 */
static void SYSTIC_vEnable(void)
{
 80021a8:	b480      	push	{r7}
 80021aa:	af00      	add	r7, sp, #0
  MSYSTIC->CTRL |= (1u << SYSTIC_CTRL_ENABLE);
 80021ac:	4b04      	ldr	r3, [pc, #16]	@ (80021c0 <SYSTIC_vEnable+0x18>)
 80021ae:	681b      	ldr	r3, [r3, #0]
 80021b0:	4a03      	ldr	r2, [pc, #12]	@ (80021c0 <SYSTIC_vEnable+0x18>)
 80021b2:	f043 0301 	orr.w	r3, r3, #1
 80021b6:	6013      	str	r3, [r2, #0]
}
 80021b8:	bf00      	nop
 80021ba:	46bd      	mov	sp, r7
 80021bc:	bc80      	pop	{r7}
 80021be:	4770      	bx	lr
 80021c0:	e000e010 	.word	0xe000e010

080021c4 <SYSTIC_vWait>:
 *
 * @details Polls the COUNTFLAG bit in the CTRL register until it is set,
 *          indicating that the counter has reached zero
 */
static void SYSTIC_vWait(void)
{
 80021c4:	b480      	push	{r7}
 80021c6:	af00      	add	r7, sp, #0
  while ((MSYSTIC->CTRL & (1u << SYSTIC_CTRL_COUNTFLAG)) == 0);
 80021c8:	bf00      	nop
 80021ca:	4b05      	ldr	r3, [pc, #20]	@ (80021e0 <SYSTIC_vWait+0x1c>)
 80021cc:	681b      	ldr	r3, [r3, #0]
 80021ce:	f403 3380 	and.w	r3, r3, #65536	@ 0x10000
 80021d2:	2b00      	cmp	r3, #0
 80021d4:	d0f9      	beq.n	80021ca <SYSTIC_vWait+0x6>
}
 80021d6:	bf00      	nop
 80021d8:	bf00      	nop
 80021da:	46bd      	mov	sp, r7
 80021dc:	bc80      	pop	{r7}
 80021de:	4770      	bx	lr
 80021e0:	e000e010 	.word	0xe000e010
 80021e4:	00000000 	.word	0x00000000

080021e8 <SYSTIC_vDelayMs>:
 *       - Clock frequency rounding
 *
 * @warning For very long delays, consider using a timer or RTC instead
 */
void SYSTIC_vDelayMs(uint32_t Copy_u32MsTime)
{
 80021e8:	b580      	push	{r7, lr}
 80021ea:	b086      	sub	sp, #24
 80021ec:	af00      	add	r7, sp, #0
 80021ee:	6078      	str	r0, [r7, #4]
  /* Calculate tick time based on clock source */
#if SYSTIC_CLKSOURCE == CLK_SOURCE_AHB_DIV8
  float Local_f32TickTimeInMs = 1.0 / (SYSTEM_CLOCK_IN_KHZ / 8.0);
#elif SYSTIC_CLKSOURCE == CLK_SOURCE_AHB
  double Local_f32TickTimeInMs = 1.0 / SYSTEM_CLOCK_IN_KHZ;
 80021f0:	a329      	add	r3, pc, #164	@ (adr r3, 8002298 <SYSTIC_vDelayMs+0xb0>)
 80021f2:	e9d3 2300 	ldrd	r2, r3, [r3]
 80021f6:	e9c7 2302 	strd	r2, r3, [r7, #8]
#endif

  /* Calculate required number of ticks */
  uint32_t Local_u32NoOfTicks = Copy_u32MsTime / Local_f32TickTimeInMs;
 80021fa:	6878      	ldr	r0, [r7, #4]
 80021fc:	f7fe f946 	bl	800048c <__aeabi_ui2d>
 8002200:	e9d7 2302 	ldrd	r2, r3, [r7, #8]
 8002204:	f7fe fae6 	bl	80007d4 <__aeabi_ddiv>
 8002208:	4602      	mov	r2, r0
 800220a:	460b      	mov	r3, r1
 800220c:	4610      	mov	r0, r2
 800220e:	4619      	mov	r1, r3
 8002210:	f7fe fbc8 	bl	80009a4 <__aeabi_d2uiz>
 8002214:	4603      	mov	r3, r0
 8002216:	617b      	str	r3, [r7, #20]

  /* Check if delay fits in single counter cycle */
  if (Local_u32NoOfTicks <= SYSTIC_MAX_NO_OF_TICKS)
 8002218:	697b      	ldr	r3, [r7, #20]
 800221a:	f1b3 7f80 	cmp.w	r3, #16777216	@ 0x1000000
 800221e:	d231      	bcs.n	8002284 <SYSTIC_vDelayMs+0x9c>
  {
    /* Single cycle delay */
    MSYSTIC->VAL = 0;                   /* Clear current value */
 8002220:	4b1f      	ldr	r3, [pc, #124]	@ (80022a0 <SYSTIC_vDelayMs+0xb8>)
 8002222:	2200      	movs	r2, #0
 8002224:	609a      	str	r2, [r3, #8]
    MSYSTIC->LOAD = Local_u32NoOfTicks; /* Load delay value */
 8002226:	4a1e      	ldr	r2, [pc, #120]	@ (80022a0 <SYSTIC_vDelayMs+0xb8>)
 8002228:	697b      	ldr	r3, [r7, #20]
 800222a:	6053      	str	r3, [r2, #4]
    SYSTIC_vEnable();                   /* Start timer */
 800222c:	f7ff ffbc 	bl	80021a8 <SYSTIC_vEnable>
    SYSTIC_vWait();                     /* Wait for completion */
 8002230:	f7ff ffc8 	bl	80021c4 <SYSTIC_vWait>
    SYSTIC_vDisable();                  /* Stop timer */
 8002234:	f7ff ffaa 	bl	800218c <SYSTIC_vDisable>
        SYSTIC_vDisable();
        break;
      }
    }
  }
}
 8002238:	e027      	b.n	800228a <SYSTIC_vDelayMs+0xa2>
      if (Local_u32NoOfTicks > SYSTIC_MAX_NO_OF_TICKS)
 800223a:	697b      	ldr	r3, [r7, #20]
 800223c:	f1b3 7f80 	cmp.w	r3, #16777216	@ 0x1000000
 8002240:	d312      	bcc.n	8002268 <SYSTIC_vDelayMs+0x80>
        Local_u32NoOfTicks -= SYSTIC_MAX_NO_OF_TICKS;
 8002242:	697b      	ldr	r3, [r7, #20]
 8002244:	f103 437f 	add.w	r3, r3, #4278190080	@ 0xff000000
 8002248:	3301      	adds	r3, #1
 800224a:	617b      	str	r3, [r7, #20]
        MSYSTIC->VAL = 0;
 800224c:	4b14      	ldr	r3, [pc, #80]	@ (80022a0 <SYSTIC_vDelayMs+0xb8>)
 800224e:	2200      	movs	r2, #0
 8002250:	609a      	str	r2, [r3, #8]
        MSYSTIC->LOAD = SYSTIC_MAX_NO_OF_TICKS;
 8002252:	4b13      	ldr	r3, [pc, #76]	@ (80022a0 <SYSTIC_vDelayMs+0xb8>)
 8002254:	f06f 427f 	mvn.w	r2, #4278190080	@ 0xff000000
 8002258:	605a      	str	r2, [r3, #4]
        SYSTIC_vEnable();
 800225a:	f7ff ffa5 	bl	80021a8 <SYSTIC_vEnable>
        SYSTIC_vWait();
 800225e:	f7ff ffb1 	bl	80021c4 <SYSTIC_vWait>
        SYSTIC_vDisable();
 8002262:	f7ff ff93 	bl	800218c <SYSTIC_vDisable>
 8002266:	e00d      	b.n	8002284 <SYSTIC_vDelayMs+0x9c>
        MSYSTIC->VAL = 0;
 8002268:	4b0d      	ldr	r3, [pc, #52]	@ (80022a0 <SYSTIC_vDelayMs+0xb8>)
 800226a:	2200      	movs	r2, #0
 800226c:	609a      	str	r2, [r3, #8]
        MSYSTIC->LOAD = Local_u32NoOfTicks;
 800226e:	4a0c      	ldr	r2, [pc, #48]	@ (80022a0 <SYSTIC_vDelayMs+0xb8>)
 8002270:	697b      	ldr	r3, [r7, #20]
 8002272:	6053      	str	r3, [r2, #4]
        SYSTIC_vEnable();
 8002274:	f7ff ff98 	bl	80021a8 <SYSTIC_vEnable>
        SYSTIC_vWait();
 8002278:	f7ff ffa4 	bl	80021c4 <SYSTIC_vWait>
        SYSTIC_vDisable();
 800227c:	f7ff ff86 	bl	800218c <SYSTIC_vDisable>
        break;
 8002280:	bf00      	nop
}
 8002282:	e002      	b.n	800228a <SYSTIC_vDelayMs+0xa2>
    while (Local_u32NoOfTicks > 0)
 8002284:	697b      	ldr	r3, [r7, #20]
 8002286:	2b00      	cmp	r3, #0
 8002288:	d1d7      	bne.n	800223a <SYSTIC_vDelayMs+0x52>
}
 800228a:	bf00      	nop
 800228c:	3718      	adds	r7, #24
 800228e:	46bd      	mov	sp, r7
 8002290:	bd80      	pop	{r7, pc}
 8002292:	bf00      	nop
 8002294:	f3af 8000 	nop.w
 8002298:	d2f1a9fc 	.word	0xd2f1a9fc
 800229c:	3f10624d 	.word	0x3f10624d
 80022a0:	e000e010 	.word	0xe000e010

080022a4 <SafetyEngine_voidInit>:
float Host_Heading = 0.0f;
float Host_DistToIntersection = 0.0f;

/* ============ Init ============ */
void SafetyEngine_voidInit(void)
{
 80022a4:	b580      	push	{r7, lr}
 80022a6:	af00      	add	r7, sp, #0
  FCW_voidInit();
 80022a8:	f7ff fb20 	bl	80018ec <FCW_voidInit>
  EEBL_voidInit();
 80022ac:	f7ff fa5e 	bl	800176c <EEBL_voidInit>
  BSW_voidInit();
 80022b0:	f7fe fea8 	bl	8001004 <BSW_voidInit>
  DNPW_voidInit();
 80022b4:	f7fe ff52 	bl	800115c <DNPW_voidInit>
  IMA_voidInit();
 80022b8:	f7ff fd38 	bl	8001d2c <IMA_voidInit>
}
 80022bc:	bf00      	nop
 80022be:	bd80      	pop	{r7, pc}

080022c0 <SafetyEngine_voidUpdate>:
 *   1. BeginCycle → each module resets its accumulators
 *   2. For each neighbor → call ProcessNeighbor on all modules
 *   3. EndCycle → each module finalizes (set flags, activate alerts)
 */
void SafetyEngine_voidUpdate(void)
{
 80022c0:	b580      	push	{r7, lr}
 80022c2:	b08a      	sub	sp, #40	@ 0x28
 80022c4:	af00      	add	r7, sp, #0
  /* Host_Speed, Host_Heading, US_Distances → shared globals (System.h) */

  Neighbor *table  = DSRC_GetTable();
 80022c6:	f7ff f9dd 	bl	8001684 <DSRC_GetTable>
 80022ca:	61b8      	str	r0, [r7, #24]
  uint8_t count    = DSRC_GetCount();
 80022cc:	f7ff f9d0 	bl	8001670 <DSRC_GetCount>
 80022d0:	4603      	mov	r3, r0
 80022d2:	75fb      	strb	r3, [r7, #23]

  /* Read all US distances ONCE per cycle */
  float front_dist = US_Distances[US_FRONT];
 80022d4:	4b4c      	ldr	r3, [pc, #304]	@ (8002408 <SafetyEngine_voidUpdate+0x148>)
 80022d6:	681b      	ldr	r3, [r3, #0]
 80022d8:	613b      	str	r3, [r7, #16]
  float rear_dist  = US_Distances[US_REAR];
 80022da:	4b4b      	ldr	r3, [pc, #300]	@ (8002408 <SafetyEngine_voidUpdate+0x148>)
 80022dc:	68db      	ldr	r3, [r3, #12]
 80022de:	60fb      	str	r3, [r7, #12]
  float left_dist  = US_Distances[US_FRONT_LEFT];
 80022e0:	4b49      	ldr	r3, [pc, #292]	@ (8002408 <SafetyEngine_voidUpdate+0x148>)
 80022e2:	689b      	ldr	r3, [r3, #8]
 80022e4:	627b      	str	r3, [r7, #36]	@ 0x24
  float right_dist = US_Distances[US_FRONT_RIGHT];
 80022e6:	4b48      	ldr	r3, [pc, #288]	@ (8002408 <SafetyEngine_voidUpdate+0x148>)
 80022e8:	685b      	ldr	r3, [r3, #4]
 80022ea:	623b      	str	r3, [r7, #32]

  /* Use min of front+rear sensor per side for BSW */
  float left_rear  = US_Distances[US_REAR_LEFT];
 80022ec:	4b46      	ldr	r3, [pc, #280]	@ (8002408 <SafetyEngine_voidUpdate+0x148>)
 80022ee:	695b      	ldr	r3, [r3, #20]
 80022f0:	60bb      	str	r3, [r7, #8]
  float right_rear = US_Distances[US_REAR_RIGHT];
 80022f2:	4b45      	ldr	r3, [pc, #276]	@ (8002408 <SafetyEngine_voidUpdate+0x148>)
 80022f4:	691b      	ldr	r3, [r3, #16]
 80022f6:	607b      	str	r3, [r7, #4]
  if (left_rear < left_dist)   { left_dist  = left_rear;  }
 80022f8:	6a79      	ldr	r1, [r7, #36]	@ 0x24
 80022fa:	68b8      	ldr	r0, [r7, #8]
 80022fc:	f7fe fe1e 	bl	8000f3c <__aeabi_fcmplt>
 8002300:	4603      	mov	r3, r0
 8002302:	2b00      	cmp	r3, #0
 8002304:	d001      	beq.n	800230a <SafetyEngine_voidUpdate+0x4a>
 8002306:	68bb      	ldr	r3, [r7, #8]
 8002308:	627b      	str	r3, [r7, #36]	@ 0x24
  if (right_rear < right_dist) { right_dist = right_rear; }
 800230a:	6a39      	ldr	r1, [r7, #32]
 800230c:	6878      	ldr	r0, [r7, #4]
 800230e:	f7fe fe15 	bl	8000f3c <__aeabi_fcmplt>
 8002312:	4603      	mov	r3, r0
 8002314:	2b00      	cmp	r3, #0
 8002316:	d001      	beq.n	800231c <SafetyEngine_voidUpdate+0x5c>
 8002318:	687b      	ldr	r3, [r7, #4]
 800231a:	623b      	str	r3, [r7, #32]
  /* HostSpeed   = ...get from speedometer... */
  /* HostHeading = ...get from compass/IMU...  */


  /* 1. Begin cycle for all modules */
  FCW_voidBeginCycle();
 800231c:	f7ff fafc 	bl	8001918 <FCW_voidBeginCycle>
  EEBL_voidBeginCycle();
 8002320:	f7ff fa3a 	bl	8001798 <EEBL_voidBeginCycle>
  BSW_voidBeginCycle(left_dist, right_dist);
 8002324:	6a39      	ldr	r1, [r7, #32]
 8002326:	6a78      	ldr	r0, [r7, #36]	@ 0x24
 8002328:	f7fe fe7c 	bl	8001024 <BSW_voidBeginCycle>
  DNPW_voidBeginCycle(front_dist);
 800232c:	6938      	ldr	r0, [r7, #16]
 800232e:	f7fe ff35 	bl	800119c <DNPW_voidBeginCycle>
  IMA_voidBeginCycle();
 8002332:	f7ff fd15 	bl	8001d60 <IMA_voidBeginCycle>

  /* 2. Single pass over neighbor table */
  for (uint8_t i = 0; i < count; i++)
 8002336:	2300      	movs	r3, #0
 8002338:	77fb      	strb	r3, [r7, #31]
 800233a:	e053      	b.n	80023e4 <SafetyEngine_voidUpdate+0x124>
  {
    /* Compute direction ONCE per neighbor — shared by all modules */
    Direction_t dir = SafetyEngine_DetectDirection(Host_Heading, table[i].heading);
 800233c:	4b33      	ldr	r3, [pc, #204]	@ (800240c <SafetyEngine_voidUpdate+0x14c>)
 800233e:	6818      	ldr	r0, [r3, #0]
 8002340:	7ffa      	ldrb	r2, [r7, #31]
 8002342:	4613      	mov	r3, r2
 8002344:	00db      	lsls	r3, r3, #3
 8002346:	1a9b      	subs	r3, r3, r2
 8002348:	009b      	lsls	r3, r3, #2
 800234a:	461a      	mov	r2, r3
 800234c:	69bb      	ldr	r3, [r7, #24]
 800234e:	4413      	add	r3, r2
 8002350:	689b      	ldr	r3, [r3, #8]
 8002352:	4619      	mov	r1, r3
 8002354:	f000 f898 	bl	8002488 <SafetyEngine_DetectDirection>
 8002358:	4603      	mov	r3, r0
 800235a:	70fb      	strb	r3, [r7, #3]

    FCW_voidProcessNeighbor(&table[i], front_dist, dir);
 800235c:	7ffa      	ldrb	r2, [r7, #31]
 800235e:	4613      	mov	r3, r2
 8002360:	00db      	lsls	r3, r3, #3
 8002362:	1a9b      	subs	r3, r3, r2
 8002364:	009b      	lsls	r3, r3, #2
 8002366:	461a      	mov	r2, r3
 8002368:	69bb      	ldr	r3, [r7, #24]
 800236a:	4413      	add	r3, r2
 800236c:	78fa      	ldrb	r2, [r7, #3]
 800236e:	6939      	ldr	r1, [r7, #16]
 8002370:	4618      	mov	r0, r3
 8002372:	f7ff fae1 	bl	8001938 <FCW_voidProcessNeighbor>
    EEBL_voidProcessNeighbor(&table[i], rear_dist, dir);
 8002376:	7ffa      	ldrb	r2, [r7, #31]
 8002378:	4613      	mov	r3, r2
 800237a:	00db      	lsls	r3, r3, #3
 800237c:	1a9b      	subs	r3, r3, r2
 800237e:	009b      	lsls	r3, r3, #2
 8002380:	461a      	mov	r2, r3
 8002382:	69bb      	ldr	r3, [r7, #24]
 8002384:	4413      	add	r3, r2
 8002386:	78fa      	ldrb	r2, [r7, #3]
 8002388:	68f9      	ldr	r1, [r7, #12]
 800238a:	4618      	mov	r0, r3
 800238c:	f7ff fa32 	bl	80017f4 <EEBL_voidProcessNeighbor>
    BSW_voidProcessNeighbor(&table[i], dir);
 8002390:	7ffa      	ldrb	r2, [r7, #31]
 8002392:	4613      	mov	r3, r2
 8002394:	00db      	lsls	r3, r3, #3
 8002396:	1a9b      	subs	r3, r3, r2
 8002398:	009b      	lsls	r3, r3, #2
 800239a:	461a      	mov	r2, r3
 800239c:	69bb      	ldr	r3, [r7, #24]
 800239e:	4413      	add	r3, r2
 80023a0:	78fa      	ldrb	r2, [r7, #3]
 80023a2:	4611      	mov	r1, r2
 80023a4:	4618      	mov	r0, r3
 80023a6:	f7fe fe57 	bl	8001058 <BSW_voidProcessNeighbor>
    DNPW_voidProcessNeighbor(&table[i], dir);
 80023aa:	7ffa      	ldrb	r2, [r7, #31]
 80023ac:	4613      	mov	r3, r2
 80023ae:	00db      	lsls	r3, r3, #3
 80023b0:	1a9b      	subs	r3, r3, r2
 80023b2:	009b      	lsls	r3, r3, #2
 80023b4:	461a      	mov	r2, r3
 80023b6:	69bb      	ldr	r3, [r7, #24]
 80023b8:	4413      	add	r3, r2
 80023ba:	78fa      	ldrb	r2, [r7, #3]
 80023bc:	4611      	mov	r1, r2
 80023be:	4618      	mov	r0, r3
 80023c0:	f7fe ff1e 	bl	8001200 <DNPW_voidProcessNeighbor>
    IMA_voidProcessNeighbor(&table[i], dir);
 80023c4:	7ffa      	ldrb	r2, [r7, #31]
 80023c6:	4613      	mov	r3, r2
 80023c8:	00db      	lsls	r3, r3, #3
 80023ca:	1a9b      	subs	r3, r3, r2
 80023cc:	009b      	lsls	r3, r3, #2
 80023ce:	461a      	mov	r2, r3
 80023d0:	69bb      	ldr	r3, [r7, #24]
 80023d2:	4413      	add	r3, r2
 80023d4:	78fa      	ldrb	r2, [r7, #3]
 80023d6:	4611      	mov	r1, r2
 80023d8:	4618      	mov	r0, r3
 80023da:	f7ff fcd7 	bl	8001d8c <IMA_voidProcessNeighbor>
  for (uint8_t i = 0; i < count; i++)
 80023de:	7ffb      	ldrb	r3, [r7, #31]
 80023e0:	3301      	adds	r3, #1
 80023e2:	77fb      	strb	r3, [r7, #31]
 80023e4:	7ffa      	ldrb	r2, [r7, #31]
 80023e6:	7dfb      	ldrb	r3, [r7, #23]
 80023e8:	429a      	cmp	r2, r3
 80023ea:	d3a7      	bcc.n	800233c <SafetyEngine_voidUpdate+0x7c>
  }

  /* 3. End cycle for all modules */
  FCW_voidEndCycle();
 80023ec:	f7ff fb14 	bl	8001a18 <FCW_voidEndCycle>
  EEBL_voidEndCycle();
 80023f0:	f7ff fa5a 	bl	80018a8 <EEBL_voidEndCycle>
  BSW_voidEndCycle();
 80023f4:	f7fe fe44 	bl	8001080 <BSW_voidEndCycle>
  DNPW_voidEndCycle();
 80023f8:	f7fe ff50 	bl	800129c <DNPW_voidEndCycle>
  IMA_voidEndCycle();
 80023fc:	f7ff fd60 	bl	8001ec0 <IMA_voidEndCycle>
}
 8002400:	bf00      	nop
 8002402:	3728      	adds	r7, #40	@ 0x28
 8002404:	46bd      	mov	sp, r7
 8002406:	bd80      	pop	{r7, pc}
 8002408:	20000460 	.word	0x20000460
 800240c:	2000047c 	.word	0x2000047c

08002410 <CalcHeadingDiff>:

/**
 * @brief Calculate absolute heading difference, normalized to [0, 180]
 */
static float CalcHeadingDiff(float h1, float h2)
{
 8002410:	b580      	push	{r7, lr}
 8002412:	b084      	sub	sp, #16
 8002414:	af00      	add	r7, sp, #0
 8002416:	6078      	str	r0, [r7, #4]
 8002418:	6039      	str	r1, [r7, #0]
  float diff = h1 - h2;
 800241a:	6839      	ldr	r1, [r7, #0]
 800241c:	6878      	ldr	r0, [r7, #4]
 800241e:	f7fe fae5 	bl	80009ec <__aeabi_fsub>
 8002422:	4603      	mov	r3, r0
 8002424:	60fb      	str	r3, [r7, #12]

  if (diff > 180.0f)
 8002426:	4915      	ldr	r1, [pc, #84]	@ (800247c <CalcHeadingDiff+0x6c>)
 8002428:	68f8      	ldr	r0, [r7, #12]
 800242a:	f7fe fda5 	bl	8000f78 <__aeabi_fcmpgt>
 800242e:	4603      	mov	r3, r0
 8002430:	2b00      	cmp	r3, #0
 8002432:	d005      	beq.n	8002440 <CalcHeadingDiff+0x30>
  {
    diff -= 360.0f;
 8002434:	4912      	ldr	r1, [pc, #72]	@ (8002480 <CalcHeadingDiff+0x70>)
 8002436:	68f8      	ldr	r0, [r7, #12]
 8002438:	f7fe fad8 	bl	80009ec <__aeabi_fsub>
 800243c:	4603      	mov	r3, r0
 800243e:	60fb      	str	r3, [r7, #12]
  }
  if (diff < -180.0f)
 8002440:	4910      	ldr	r1, [pc, #64]	@ (8002484 <CalcHeadingDiff+0x74>)
 8002442:	68f8      	ldr	r0, [r7, #12]
 8002444:	f7fe fd7a 	bl	8000f3c <__aeabi_fcmplt>
 8002448:	4603      	mov	r3, r0
 800244a:	2b00      	cmp	r3, #0
 800244c:	d005      	beq.n	800245a <CalcHeadingDiff+0x4a>
  {
    diff += 360.0f;
 800244e:	490c      	ldr	r1, [pc, #48]	@ (8002480 <CalcHeadingDiff+0x70>)
 8002450:	68f8      	ldr	r0, [r7, #12]
 8002452:	f7fe facd 	bl	80009f0 <__addsf3>
 8002456:	4603      	mov	r3, r0
 8002458:	60fb      	str	r3, [r7, #12]
  }

  return (diff < 0.0f) ? -diff : diff;
 800245a:	f04f 0100 	mov.w	r1, #0
 800245e:	68f8      	ldr	r0, [r7, #12]
 8002460:	f7fe fd6c 	bl	8000f3c <__aeabi_fcmplt>
 8002464:	4603      	mov	r3, r0
 8002466:	2b00      	cmp	r3, #0
 8002468:	d003      	beq.n	8002472 <CalcHeadingDiff+0x62>
 800246a:	68fb      	ldr	r3, [r7, #12]
 800246c:	f083 4300 	eor.w	r3, r3, #2147483648	@ 0x80000000
 8002470:	e000      	b.n	8002474 <CalcHeadingDiff+0x64>
 8002472:	68fb      	ldr	r3, [r7, #12]
}
 8002474:	4618      	mov	r0, r3
 8002476:	3710      	adds	r7, #16
 8002478:	46bd      	mov	sp, r7
 800247a:	bd80      	pop	{r7, pc}
 800247c:	43340000 	.word	0x43340000
 8002480:	43b40000 	.word	0x43b40000
 8002484:	c3340000 	.word	0xc3340000

08002488 <SafetyEngine_DetectDirection>:

Direction_t SafetyEngine_DetectDirection(float my_heading, float other_heading)
{
 8002488:	b580      	push	{r7, lr}
 800248a:	b084      	sub	sp, #16
 800248c:	af00      	add	r7, sp, #0
 800248e:	6078      	str	r0, [r7, #4]
 8002490:	6039      	str	r1, [r7, #0]
  float diff = CalcHeadingDiff(my_heading, other_heading);
 8002492:	6839      	ldr	r1, [r7, #0]
 8002494:	6878      	ldr	r0, [r7, #4]
 8002496:	f7ff ffbb 	bl	8002410 <CalcHeadingDiff>
 800249a:	60f8      	str	r0, [r7, #12]

  if (diff <= HEADING_SAME_THRESHOLD)
 800249c:	4913      	ldr	r1, [pc, #76]	@ (80024ec <SafetyEngine_DetectDirection+0x64>)
 800249e:	68f8      	ldr	r0, [r7, #12]
 80024a0:	f7fe fd56 	bl	8000f50 <__aeabi_fcmple>
 80024a4:	4603      	mov	r3, r0
 80024a6:	2b00      	cmp	r3, #0
 80024a8:	d001      	beq.n	80024ae <SafetyEngine_DetectDirection+0x26>
  {
    return DIR_SAME;
 80024aa:	2300      	movs	r3, #0
 80024ac:	e019      	b.n	80024e2 <SafetyEngine_DetectDirection+0x5a>
  }

  if (diff >= (180.0f - HEADING_OPPOSITE_THRESHOLD))
 80024ae:	4910      	ldr	r1, [pc, #64]	@ (80024f0 <SafetyEngine_DetectDirection+0x68>)
 80024b0:	68f8      	ldr	r0, [r7, #12]
 80024b2:	f7fe fd57 	bl	8000f64 <__aeabi_fcmpge>
 80024b6:	4603      	mov	r3, r0
 80024b8:	2b00      	cmp	r3, #0
 80024ba:	d001      	beq.n	80024c0 <SafetyEngine_DetectDirection+0x38>
  {
    return DIR_OPPOSITE;
 80024bc:	2301      	movs	r3, #1
 80024be:	e010      	b.n	80024e2 <SafetyEngine_DetectDirection+0x5a>
  }

  if (diff >= (90.0f - HEADING_CROSS_THRESHOLD) && diff <= (90.0f + HEADING_CROSS_THRESHOLD))
 80024c0:	490c      	ldr	r1, [pc, #48]	@ (80024f4 <SafetyEngine_DetectDirection+0x6c>)
 80024c2:	68f8      	ldr	r0, [r7, #12]
 80024c4:	f7fe fd4e 	bl	8000f64 <__aeabi_fcmpge>
 80024c8:	4603      	mov	r3, r0
 80024ca:	2b00      	cmp	r3, #0
 80024cc:	d008      	beq.n	80024e0 <SafetyEngine_DetectDirection+0x58>
 80024ce:	490a      	ldr	r1, [pc, #40]	@ (80024f8 <SafetyEngine_DetectDirection+0x70>)
 80024d0:	68f8      	ldr	r0, [r7, #12]
 80024d2:	f7fe fd3d 	bl	8000f50 <__aeabi_fcmple>
 80024d6:	4603      	mov	r3, r0
 80024d8:	2b00      	cmp	r3, #0
 80024da:	d001      	beq.n	80024e0 <SafetyEngine_DetectDirection+0x58>
  {
    return DIR_CROSSING;
 80024dc:	2302      	movs	r3, #2
 80024de:	e000      	b.n	80024e2 <SafetyEngine_DetectDirection+0x5a>
  }

  return DIR_UNKNOWN;
 80024e0:	2303      	movs	r3, #3
}
 80024e2:	4618      	mov	r0, r3
 80024e4:	3710      	adds	r7, #16
 80024e6:	46bd      	mov	sp, r7
 80024e8:	bd80      	pop	{r7, pc}
 80024ea:	bf00      	nop
 80024ec:	41f00000 	.word	0x41f00000
 80024f0:	43160000 	.word	0x43160000
 80024f4:	42700000 	.word	0x42700000
 80024f8:	42f00000 	.word	0x42f00000

080024fc <SafetyEngine_CalcTTC>:

/* ============ Shared TTC & Risk Evaluation ============ */

float SafetyEngine_CalcTTC(float distance, float relative_speed)
{
 80024fc:	b580      	push	{r7, lr}
 80024fe:	b082      	sub	sp, #8
 8002500:	af00      	add	r7, sp, #0
 8002502:	6078      	str	r0, [r7, #4]
 8002504:	6039      	str	r1, [r7, #0]
  if (relative_speed <= 0.0f)
 8002506:	f04f 0100 	mov.w	r1, #0
 800250a:	6838      	ldr	r0, [r7, #0]
 800250c:	f7fe fd20 	bl	8000f50 <__aeabi_fcmple>
 8002510:	4603      	mov	r3, r0
 8002512:	2b00      	cmp	r3, #0
 8002514:	d001      	beq.n	800251a <SafetyEngine_CalcTTC+0x1e>
  {
    return -1.0f;
 8002516:	4b05      	ldr	r3, [pc, #20]	@ (800252c <SafetyEngine_CalcTTC+0x30>)
 8002518:	e004      	b.n	8002524 <SafetyEngine_CalcTTC+0x28>
  }

  return distance / relative_speed;
 800251a:	6839      	ldr	r1, [r7, #0]
 800251c:	6878      	ldr	r0, [r7, #4]
 800251e:	f7fe fc23 	bl	8000d68 <__aeabi_fdiv>
 8002522:	4603      	mov	r3, r0
}
 8002524:	4618      	mov	r0, r3
 8002526:	3708      	adds	r7, #8
 8002528:	46bd      	mov	sp, r7
 800252a:	bd80      	pop	{r7, pc}
 800252c:	bf800000 	.word	0xbf800000

08002530 <SafetyEngine_EvaluateRisk>:

RiskLevel_t SafetyEngine_EvaluateRisk(float ttc, float warning_ttc, float critical_ttc)
{
 8002530:	b580      	push	{r7, lr}
 8002532:	b084      	sub	sp, #16
 8002534:	af00      	add	r7, sp, #0
 8002536:	60f8      	str	r0, [r7, #12]
 8002538:	60b9      	str	r1, [r7, #8]
 800253a:	607a      	str	r2, [r7, #4]
  if (ttc < 0.0f)
 800253c:	f04f 0100 	mov.w	r1, #0
 8002540:	68f8      	ldr	r0, [r7, #12]
 8002542:	f7fe fcfb 	bl	8000f3c <__aeabi_fcmplt>
 8002546:	4603      	mov	r3, r0
 8002548:	2b00      	cmp	r3, #0
 800254a:	d001      	beq.n	8002550 <SafetyEngine_EvaluateRisk+0x20>
  {
    return RISK_SAFE;
 800254c:	2300      	movs	r3, #0
 800254e:	e012      	b.n	8002576 <SafetyEngine_EvaluateRisk+0x46>
  }

  if (ttc <= critical_ttc)
 8002550:	6879      	ldr	r1, [r7, #4]
 8002552:	68f8      	ldr	r0, [r7, #12]
 8002554:	f7fe fcfc 	bl	8000f50 <__aeabi_fcmple>
 8002558:	4603      	mov	r3, r0
 800255a:	2b00      	cmp	r3, #0
 800255c:	d001      	beq.n	8002562 <SafetyEngine_EvaluateRisk+0x32>
  {
    return RISK_CRITICAL;
 800255e:	2302      	movs	r3, #2
 8002560:	e009      	b.n	8002576 <SafetyEngine_EvaluateRisk+0x46>
  }

  if (ttc <= warning_ttc)
 8002562:	68b9      	ldr	r1, [r7, #8]
 8002564:	68f8      	ldr	r0, [r7, #12]
 8002566:	f7fe fcf3 	bl	8000f50 <__aeabi_fcmple>
 800256a:	4603      	mov	r3, r0
 800256c:	2b00      	cmp	r3, #0
 800256e:	d001      	beq.n	8002574 <SafetyEngine_EvaluateRisk+0x44>
  {
    return RISK_WARNING;
 8002570:	2301      	movs	r3, #1
 8002572:	e000      	b.n	8002576 <SafetyEngine_EvaluateRisk+0x46>
  }

  return RISK_SAFE;
 8002574:	2300      	movs	r3, #0
}
 8002576:	4618      	mov	r0, r3
 8002578:	3710      	adds	r7, #16
 800257a:	46bd      	mov	sp, r7
 800257c:	bd80      	pop	{r7, pc}
	...

08002580 <System_Init>:

// ============================================================
// System Init - init all peripherals
// ============================================================
void System_Init(void)
{
 8002580:	b580      	push	{r7, lr}
 8002582:	af00      	add	r7, sp, #0
  // clock init
  SYSTIC_vInit();
 8002584:	f7ff fdee 	bl	8002164 <SYSTIC_vInit>
  RCC_enumAHPPerSts(RCC_AHB1, RCC_GPIOAEN, RCC_PER_ON);
 8002588:	2200      	movs	r2, #0
 800258a:	2100      	movs	r1, #0
 800258c:	2000      	movs	r0, #0
 800258e:	f7ff fcfb 	bl	8001f88 <RCC_enumAHPPerSts>
  RCC_enumABPPerSts(RCC_APB2, RCC_USART1EN, RCC_PER_ON);
 8002592:	2200      	movs	r2, #0
 8002594:	2104      	movs	r1, #4
 8002596:	2004      	movs	r0, #4
 8002598:	f7ff fd7e 	bl	8002098 <RCC_enumABPPerSts>

  // GPIO init
  GPIO_enumPinInit(&PA9);
 800259c:	4807      	ldr	r0, [pc, #28]	@ (80025bc <System_Init+0x3c>)
 800259e:	f7ff fa6f 	bl	8001a80 <GPIO_enumPinInit>
  GPIO_enumPinInit(&PA10);
 80025a2:	4807      	ldr	r0, [pc, #28]	@ (80025c0 <System_Init+0x40>)
 80025a4:	f7ff fa6c 	bl	8001a80 <GPIO_enumPinInit>

  // USART init
  USART_InitIT(&USART_1);
 80025a8:	4806      	ldr	r0, [pc, #24]	@ (80025c4 <System_Init+0x44>)
 80025aa:	f000 f821 	bl	80025f0 <USART_InitIT>
  NVIC_vEnableIRQ(NVIC_USART1);
 80025ae:	2025      	movs	r0, #37	@ 0x25
 80025b0:	f7ff fcc8 	bl	8001f44 <NVIC_vEnableIRQ>

  // DSRC init
  DSRC_Init();
 80025b4:	f7fe ffe2 	bl	800157c <DSRC_Init>
}
 80025b8:	bf00      	nop
 80025ba:	bd80      	pop	{r7, pc}
 80025bc:	20000038 	.word	0x20000038
 80025c0:	20000040 	.word	0x20000040
 80025c4:	20000020 	.word	0x20000020

080025c8 <USART_RXCMP>:

// ====== UART RX Interrupt ======
void USART_RXCMP(void)
{
 80025c8:	b580      	push	{r7, lr}
 80025ca:	b082      	sub	sp, #8
 80025cc:	af00      	add	r7, sp, #0
  uint8_t byte;
  USART_enumReceive(&USART_1, &byte);
 80025ce:	1dfb      	adds	r3, r7, #7
 80025d0:	4619      	mov	r1, r3
 80025d2:	4805      	ldr	r0, [pc, #20]	@ (80025e8 <USART_RXCMP+0x20>)
 80025d4:	f000 faca 	bl	8002b6c <USART_enumReceive>
  DSRC_RxCallback(byte);
 80025d8:	79fb      	ldrb	r3, [r7, #7]
 80025da:	4618      	mov	r0, r3
 80025dc:	f7ff f85c 	bl	8001698 <DSRC_RxCallback>
}
 80025e0:	bf00      	nop
 80025e2:	3708      	adds	r7, #8
 80025e4:	46bd      	mov	sp, r7
 80025e6:	bd80      	pop	{r7, pc}
 80025e8:	20000020 	.word	0x20000020
 80025ec:	00000000 	.word	0x00000000

080025f0 <USART_InitIT>:
 * @return ErrorState_t OK if successful, error code otherwise
 *
 * @warning NULL pointer check is performed on input parameter
 */
ErrorState_t USART_InitIT(const USART_Handle_t *ChannelHandle)
{
 80025f0:	b5b0      	push	{r4, r5, r7, lr}
 80025f2:	b08a      	sub	sp, #40	@ 0x28
 80025f4:	af00      	add	r7, sp, #0
 80025f6:	6078      	str	r0, [r7, #4]
  ErrorState_t Local_u8ErrorState = OK;
 80025f8:	2300      	movs	r3, #0
 80025fa:	f887 3027 	strb.w	r3, [r7, #39]	@ 0x27

  if (ChannelHandle == NULL)
 80025fe:	687b      	ldr	r3, [r7, #4]
 8002600:	2b00      	cmp	r3, #0
 8002602:	d103      	bne.n	800260c <USART_InitIT+0x1c>
  {
    Local_u8ErrorState = NULL_POINTER;
 8002604:	2302      	movs	r3, #2
 8002606:	f887 3027 	strb.w	r3, [r7, #39]	@ 0x27
 800260a:	e25c      	b.n	8002ac6 <USART_InitIT+0x4d6>
  }
  else
  {
    if(ChannelHandle->Channel > USART_CHANNEL_COUNT)
 800260c:	687b      	ldr	r3, [r7, #4]
 800260e:	781b      	ldrb	r3, [r3, #0]
 8002610:	2b06      	cmp	r3, #6
 8002612:	d903      	bls.n	800261c <USART_InitIT+0x2c>
    {
      Local_u8ErrorState = NOK;
 8002614:	2301      	movs	r3, #1
 8002616:	f887 3027 	strb.w	r3, [r7, #39]	@ 0x27
 800261a:	e1d9      	b.n	80029d0 <USART_InitIT+0x3e0>
    }
    else
    {
      /* Configure Over Sampling */
      USART_Channel[ChannelHandle->Channel]->CR1 |= (ChannelHandle->OverSampling & 0X1) << CR1_OVER;
 800261c:	687b      	ldr	r3, [r7, #4]
 800261e:	781b      	ldrb	r3, [r3, #0]
 8002620:	461a      	mov	r2, r3
 8002622:	4b51      	ldr	r3, [pc, #324]	@ (8002768 <USART_InitIT+0x178>)
 8002624:	f853 3022 	ldr.w	r3, [r3, r2, lsl #2]
 8002628:	68d9      	ldr	r1, [r3, #12]
 800262a:	687b      	ldr	r3, [r7, #4]
 800262c:	7b5b      	ldrb	r3, [r3, #13]
 800262e:	03db      	lsls	r3, r3, #15
 8002630:	b29a      	uxth	r2, r3
 8002632:	687b      	ldr	r3, [r7, #4]
 8002634:	781b      	ldrb	r3, [r3, #0]
 8002636:	4618      	mov	r0, r3
 8002638:	4b4b      	ldr	r3, [pc, #300]	@ (8002768 <USART_InitIT+0x178>)
 800263a:	f853 3020 	ldr.w	r3, [r3, r0, lsl #2]
 800263e:	430a      	orrs	r2, r1
 8002640:	60da      	str	r2, [r3, #12]

      /* Configure Baud Rate */
      if (ChannelHandle->OverSampling == USART_OVERSAMPLING_16)
 8002642:	687b      	ldr	r3, [r7, #4]
 8002644:	7b5b      	ldrb	r3, [r3, #13]
 8002646:	2b00      	cmp	r3, #0
 8002648:	f040 8096 	bne.w	8002778 <USART_InitIT+0x188>
      {
        /* BAUD_RATE = (fCK / (8 * (2 - Over8) * USART_DIV) */
        /* USART_DIV = (fCK / (8 * (2 - Over8) * BAUD_RATE) */
        /* USART_Fraction = Fraction Part * 16 (in oversampling 16)*/
        uint32_t Local_u32BaudRate = (double)(MAXIMUM_CLOCK / (8.0 * (2.0 - ChannelHandle->OverSampling) * ChannelHandle->BaudRate) * 1000);
 800264c:	687b      	ldr	r3, [r7, #4]
 800264e:	7b5b      	ldrb	r3, [r3, #13]
 8002650:	4618      	mov	r0, r3
 8002652:	f7fd ff2b 	bl	80004ac <__aeabi_i2d>
 8002656:	4602      	mov	r2, r0
 8002658:	460b      	mov	r3, r1
 800265a:	f04f 0000 	mov.w	r0, #0
 800265e:	f04f 4180 	mov.w	r1, #1073741824	@ 0x40000000
 8002662:	f7fd fdd5 	bl	8000210 <__aeabi_dsub>
 8002666:	4602      	mov	r2, r0
 8002668:	460b      	mov	r3, r1
 800266a:	4610      	mov	r0, r2
 800266c:	4619      	mov	r1, r3
 800266e:	f04f 0200 	mov.w	r2, #0
 8002672:	4b3e      	ldr	r3, [pc, #248]	@ (800276c <USART_InitIT+0x17c>)
 8002674:	f7fd ff84 	bl	8000580 <__aeabi_dmul>
 8002678:	4602      	mov	r2, r0
 800267a:	460b      	mov	r3, r1
 800267c:	4614      	mov	r4, r2
 800267e:	461d      	mov	r5, r3
 8002680:	687b      	ldr	r3, [r7, #4]
 8002682:	685b      	ldr	r3, [r3, #4]
 8002684:	4618      	mov	r0, r3
 8002686:	f7fd ff01 	bl	800048c <__aeabi_ui2d>
 800268a:	4602      	mov	r2, r0
 800268c:	460b      	mov	r3, r1
 800268e:	4620      	mov	r0, r4
 8002690:	4629      	mov	r1, r5
 8002692:	f7fd ff75 	bl	8000580 <__aeabi_dmul>
 8002696:	4602      	mov	r2, r0
 8002698:	460b      	mov	r3, r1
 800269a:	a131      	add	r1, pc, #196	@ (adr r1, 8002760 <USART_InitIT+0x170>)
 800269c:	e9d1 0100 	ldrd	r0, r1, [r1]
 80026a0:	f7fe f898 	bl	80007d4 <__aeabi_ddiv>
 80026a4:	4602      	mov	r2, r0
 80026a6:	460b      	mov	r3, r1
 80026a8:	4610      	mov	r0, r2
 80026aa:	4619      	mov	r1, r3
 80026ac:	f04f 0200 	mov.w	r2, #0
 80026b0:	4b2f      	ldr	r3, [pc, #188]	@ (8002770 <USART_InitIT+0x180>)
 80026b2:	f7fd ff65 	bl	8000580 <__aeabi_dmul>
 80026b6:	4602      	mov	r2, r0
 80026b8:	460b      	mov	r3, r1
 80026ba:	4610      	mov	r0, r2
 80026bc:	4619      	mov	r1, r3
 80026be:	f7fe f971 	bl	80009a4 <__aeabi_d2uiz>
 80026c2:	4603      	mov	r3, r0
 80026c4:	617b      	str	r3, [r7, #20]
        uint32_t Local_u32USARTDiv_Mantissa = (uint32_t)(Local_u32BaudRate / 1000);
 80026c6:	697b      	ldr	r3, [r7, #20]
 80026c8:	4a2a      	ldr	r2, [pc, #168]	@ (8002774 <USART_InitIT+0x184>)
 80026ca:	fba2 2303 	umull	r2, r3, r2, r3
 80026ce:	099b      	lsrs	r3, r3, #6
 80026d0:	613b      	str	r3, [r7, #16]
        /* +500 To get Round */
        uint32_t Local_u32USARTDiv_Fraction = (uint32_t)((((Local_u32BaudRate % 1000) * 16) + 500) / 1000);
 80026d2:	697a      	ldr	r2, [r7, #20]
 80026d4:	4b27      	ldr	r3, [pc, #156]	@ (8002774 <USART_InitIT+0x184>)
 80026d6:	fba3 1302 	umull	r1, r3, r3, r2
 80026da:	099b      	lsrs	r3, r3, #6
 80026dc:	f44f 717a 	mov.w	r1, #1000	@ 0x3e8
 80026e0:	fb01 f303 	mul.w	r3, r1, r3
 80026e4:	1ad3      	subs	r3, r2, r3
 80026e6:	011b      	lsls	r3, r3, #4
 80026e8:	f503 73fa 	add.w	r3, r3, #500	@ 0x1f4
 80026ec:	4a21      	ldr	r2, [pc, #132]	@ (8002774 <USART_InitIT+0x184>)
 80026ee:	fba2 2303 	umull	r2, r3, r2, r3
 80026f2:	099b      	lsrs	r3, r3, #6
 80026f4:	60fb      	str	r3, [r7, #12]

        USART_Channel[ChannelHandle->Channel]->BRR &= ~BRR_MASKING;
 80026f6:	687b      	ldr	r3, [r7, #4]
 80026f8:	781b      	ldrb	r3, [r3, #0]
 80026fa:	461a      	mov	r2, r3
 80026fc:	4b1a      	ldr	r3, [pc, #104]	@ (8002768 <USART_InitIT+0x178>)
 80026fe:	f853 3022 	ldr.w	r3, [r3, r2, lsl #2]
 8002702:	689b      	ldr	r3, [r3, #8]
 8002704:	687a      	ldr	r2, [r7, #4]
 8002706:	7812      	ldrb	r2, [r2, #0]
 8002708:	4611      	mov	r1, r2
 800270a:	4a17      	ldr	r2, [pc, #92]	@ (8002768 <USART_InitIT+0x178>)
 800270c:	f852 2021 	ldr.w	r2, [r2, r1, lsl #2]
 8002710:	0c1b      	lsrs	r3, r3, #16
 8002712:	041b      	lsls	r3, r3, #16
 8002714:	6093      	str	r3, [r2, #8]
        USART_Channel[ChannelHandle->Channel]->BRR |= ((Local_u32USARTDiv_Mantissa & 0XFFF) << BRR_DIV_MANTISSA_SHIFTING);
 8002716:	687b      	ldr	r3, [r7, #4]
 8002718:	781b      	ldrb	r3, [r3, #0]
 800271a:	461a      	mov	r2, r3
 800271c:	4b12      	ldr	r3, [pc, #72]	@ (8002768 <USART_InitIT+0x178>)
 800271e:	f853 3022 	ldr.w	r3, [r3, r2, lsl #2]
 8002722:	6899      	ldr	r1, [r3, #8]
 8002724:	693b      	ldr	r3, [r7, #16]
 8002726:	011b      	lsls	r3, r3, #4
 8002728:	b29a      	uxth	r2, r3
 800272a:	687b      	ldr	r3, [r7, #4]
 800272c:	781b      	ldrb	r3, [r3, #0]
 800272e:	4618      	mov	r0, r3
 8002730:	4b0d      	ldr	r3, [pc, #52]	@ (8002768 <USART_InitIT+0x178>)
 8002732:	f853 3020 	ldr.w	r3, [r3, r0, lsl #2]
 8002736:	430a      	orrs	r2, r1
 8002738:	609a      	str	r2, [r3, #8]
        USART_Channel[ChannelHandle->Channel]->BRR |= (Local_u32USARTDiv_Fraction & 0XF);
 800273a:	687b      	ldr	r3, [r7, #4]
 800273c:	781b      	ldrb	r3, [r3, #0]
 800273e:	461a      	mov	r2, r3
 8002740:	4b09      	ldr	r3, [pc, #36]	@ (8002768 <USART_InitIT+0x178>)
 8002742:	f853 3022 	ldr.w	r3, [r3, r2, lsl #2]
 8002746:	6899      	ldr	r1, [r3, #8]
 8002748:	68fb      	ldr	r3, [r7, #12]
 800274a:	f003 020f 	and.w	r2, r3, #15
 800274e:	687b      	ldr	r3, [r7, #4]
 8002750:	781b      	ldrb	r3, [r3, #0]
 8002752:	4618      	mov	r0, r3
 8002754:	4b04      	ldr	r3, [pc, #16]	@ (8002768 <USART_InitIT+0x178>)
 8002756:	f853 3020 	ldr.w	r3, [r3, r0, lsl #2]
 800275a:	430a      	orrs	r2, r1
 800275c:	609a      	str	r2, [r3, #8]
 800275e:	e099      	b.n	8002894 <USART_InitIT+0x2a4>
 8002760:	00000000 	.word	0x00000000
 8002764:	416e8480 	.word	0x416e8480
 8002768:	20000048 	.word	0x20000048
 800276c:	40200000 	.word	0x40200000
 8002770:	408f4000 	.word	0x408f4000
 8002774:	10624dd3 	.word	0x10624dd3
      }
      else if (ChannelHandle->OverSampling == USART_OVERSAMPLING_8)
 8002778:	687b      	ldr	r3, [r7, #4]
 800277a:	7b5b      	ldrb	r3, [r3, #13]
 800277c:	2b01      	cmp	r3, #1
 800277e:	f040 8089 	bne.w	8002894 <USART_InitIT+0x2a4>
      {
        /* BAUD_RATE = (fCK / (8 * (2 - Over8) * USART_DIV) */
        /* USART_DIV = (fCK / (8 * (2 - Over8) * BAUD_RATE) */
        /* USART_Fraction = Fraction Part * 8 (in oversampling 8) */
        uint32_t Local_u32BaudRate = (double)(MAXIMUM_CLOCK / (8.0 * (2.0 - ChannelHandle->OverSampling) * ChannelHandle->BaudRate) * 1000);
 8002782:	687b      	ldr	r3, [r7, #4]
 8002784:	7b5b      	ldrb	r3, [r3, #13]
 8002786:	4618      	mov	r0, r3
 8002788:	f7fd fe90 	bl	80004ac <__aeabi_i2d>
 800278c:	4602      	mov	r2, r0
 800278e:	460b      	mov	r3, r1
 8002790:	f04f 0000 	mov.w	r0, #0
 8002794:	f04f 4180 	mov.w	r1, #1073741824	@ 0x40000000
 8002798:	f7fd fd3a 	bl	8000210 <__aeabi_dsub>
 800279c:	4602      	mov	r2, r0
 800279e:	460b      	mov	r3, r1
 80027a0:	4610      	mov	r0, r2
 80027a2:	4619      	mov	r1, r3
 80027a4:	f04f 0200 	mov.w	r2, #0
 80027a8:	4b83      	ldr	r3, [pc, #524]	@ (80029b8 <USART_InitIT+0x3c8>)
 80027aa:	f7fd fee9 	bl	8000580 <__aeabi_dmul>
 80027ae:	4602      	mov	r2, r0
 80027b0:	460b      	mov	r3, r1
 80027b2:	4614      	mov	r4, r2
 80027b4:	461d      	mov	r5, r3
 80027b6:	687b      	ldr	r3, [r7, #4]
 80027b8:	685b      	ldr	r3, [r3, #4]
 80027ba:	4618      	mov	r0, r3
 80027bc:	f7fd fe66 	bl	800048c <__aeabi_ui2d>
 80027c0:	4602      	mov	r2, r0
 80027c2:	460b      	mov	r3, r1
 80027c4:	4620      	mov	r0, r4
 80027c6:	4629      	mov	r1, r5
 80027c8:	f7fd feda 	bl	8000580 <__aeabi_dmul>
 80027cc:	4602      	mov	r2, r0
 80027ce:	460b      	mov	r3, r1
 80027d0:	a177      	add	r1, pc, #476	@ (adr r1, 80029b0 <USART_InitIT+0x3c0>)
 80027d2:	e9d1 0100 	ldrd	r0, r1, [r1]
 80027d6:	f7fd fffd 	bl	80007d4 <__aeabi_ddiv>
 80027da:	4602      	mov	r2, r0
 80027dc:	460b      	mov	r3, r1
 80027de:	4610      	mov	r0, r2
 80027e0:	4619      	mov	r1, r3
 80027e2:	f04f 0200 	mov.w	r2, #0
 80027e6:	4b75      	ldr	r3, [pc, #468]	@ (80029bc <USART_InitIT+0x3cc>)
 80027e8:	f7fd feca 	bl	8000580 <__aeabi_dmul>
 80027ec:	4602      	mov	r2, r0
 80027ee:	460b      	mov	r3, r1
 80027f0:	4610      	mov	r0, r2
 80027f2:	4619      	mov	r1, r3
 80027f4:	f7fe f8d6 	bl	80009a4 <__aeabi_d2uiz>
 80027f8:	4603      	mov	r3, r0
 80027fa:	623b      	str	r3, [r7, #32]
        uint32_t Local_u32USARTDiv_Mantissa = (uint32_t)(Local_u32BaudRate / 1000);
 80027fc:	6a3b      	ldr	r3, [r7, #32]
 80027fe:	4a70      	ldr	r2, [pc, #448]	@ (80029c0 <USART_InitIT+0x3d0>)
 8002800:	fba2 2303 	umull	r2, r3, r2, r3
 8002804:	099b      	lsrs	r3, r3, #6
 8002806:	61fb      	str	r3, [r7, #28]
        /* +500 To get Round */
        uint32_t Local_u32USARTDiv_Fraction = (uint32_t)((((Local_u32BaudRate % 1000) * 8) + 500) / 1000);
 8002808:	6a3a      	ldr	r2, [r7, #32]
 800280a:	4b6d      	ldr	r3, [pc, #436]	@ (80029c0 <USART_InitIT+0x3d0>)
 800280c:	fba3 1302 	umull	r1, r3, r3, r2
 8002810:	099b      	lsrs	r3, r3, #6
 8002812:	f44f 717a 	mov.w	r1, #1000	@ 0x3e8
 8002816:	fb01 f303 	mul.w	r3, r1, r3
 800281a:	1ad3      	subs	r3, r2, r3
 800281c:	00db      	lsls	r3, r3, #3
 800281e:	f503 73fa 	add.w	r3, r3, #500	@ 0x1f4
 8002822:	4a67      	ldr	r2, [pc, #412]	@ (80029c0 <USART_InitIT+0x3d0>)
 8002824:	fba2 2303 	umull	r2, r3, r2, r3
 8002828:	099b      	lsrs	r3, r3, #6
 800282a:	61bb      	str	r3, [r7, #24]

        USART_Channel[ChannelHandle->Channel]->BRR &= ~BRR_MASKING;
 800282c:	687b      	ldr	r3, [r7, #4]
 800282e:	781b      	ldrb	r3, [r3, #0]
 8002830:	461a      	mov	r2, r3
 8002832:	4b64      	ldr	r3, [pc, #400]	@ (80029c4 <USART_InitIT+0x3d4>)
 8002834:	f853 3022 	ldr.w	r3, [r3, r2, lsl #2]
 8002838:	689b      	ldr	r3, [r3, #8]
 800283a:	687a      	ldr	r2, [r7, #4]
 800283c:	7812      	ldrb	r2, [r2, #0]
 800283e:	4611      	mov	r1, r2
 8002840:	4a60      	ldr	r2, [pc, #384]	@ (80029c4 <USART_InitIT+0x3d4>)
 8002842:	f852 2021 	ldr.w	r2, [r2, r1, lsl #2]
 8002846:	0c1b      	lsrs	r3, r3, #16
 8002848:	041b      	lsls	r3, r3, #16
 800284a:	6093      	str	r3, [r2, #8]
        USART_Channel[ChannelHandle->Channel]->BRR |= ((Local_u32USARTDiv_Mantissa & 0XFFF) << BRR_DIV_MANTISSA_SHIFTING);
 800284c:	687b      	ldr	r3, [r7, #4]
 800284e:	781b      	ldrb	r3, [r3, #0]
 8002850:	461a      	mov	r2, r3
 8002852:	4b5c      	ldr	r3, [pc, #368]	@ (80029c4 <USART_InitIT+0x3d4>)
 8002854:	f853 3022 	ldr.w	r3, [r3, r2, lsl #2]
 8002858:	6899      	ldr	r1, [r3, #8]
 800285a:	69fb      	ldr	r3, [r7, #28]
 800285c:	011b      	lsls	r3, r3, #4
 800285e:	b29a      	uxth	r2, r3
 8002860:	687b      	ldr	r3, [r7, #4]
 8002862:	781b      	ldrb	r3, [r3, #0]
 8002864:	4618      	mov	r0, r3
 8002866:	4b57      	ldr	r3, [pc, #348]	@ (80029c4 <USART_InitIT+0x3d4>)
 8002868:	f853 3020 	ldr.w	r3, [r3, r0, lsl #2]
 800286c:	430a      	orrs	r2, r1
 800286e:	609a      	str	r2, [r3, #8]
        USART_Channel[ChannelHandle->Channel]->BRR |= (Local_u32USARTDiv_Fraction & 0X7);
 8002870:	687b      	ldr	r3, [r7, #4]
 8002872:	781b      	ldrb	r3, [r3, #0]
 8002874:	461a      	mov	r2, r3
 8002876:	4b53      	ldr	r3, [pc, #332]	@ (80029c4 <USART_InitIT+0x3d4>)
 8002878:	f853 3022 	ldr.w	r3, [r3, r2, lsl #2]
 800287c:	6899      	ldr	r1, [r3, #8]
 800287e:	69bb      	ldr	r3, [r7, #24]
 8002880:	f003 0207 	and.w	r2, r3, #7
 8002884:	687b      	ldr	r3, [r7, #4]
 8002886:	781b      	ldrb	r3, [r3, #0]
 8002888:	4618      	mov	r0, r3
 800288a:	4b4e      	ldr	r3, [pc, #312]	@ (80029c4 <USART_InitIT+0x3d4>)
 800288c:	f853 3020 	ldr.w	r3, [r3, r0, lsl #2]
 8002890:	430a      	orrs	r2, r1
 8002892:	609a      	str	r2, [r3, #8]
      }

      /* Configure Word Length */
      USART_Channel[ChannelHandle->Channel]->CR1 |= (ChannelHandle->WordLength & 0X1) << CR1_WL ;
 8002894:	687b      	ldr	r3, [r7, #4]
 8002896:	781b      	ldrb	r3, [r3, #0]
 8002898:	461a      	mov	r2, r3
 800289a:	4b4a      	ldr	r3, [pc, #296]	@ (80029c4 <USART_InitIT+0x3d4>)
 800289c:	f853 3022 	ldr.w	r3, [r3, r2, lsl #2]
 80028a0:	68d9      	ldr	r1, [r3, #12]
 80028a2:	687b      	ldr	r3, [r7, #4]
 80028a4:	7a1b      	ldrb	r3, [r3, #8]
 80028a6:	031b      	lsls	r3, r3, #12
 80028a8:	f403 5280 	and.w	r2, r3, #4096	@ 0x1000
 80028ac:	687b      	ldr	r3, [r7, #4]
 80028ae:	781b      	ldrb	r3, [r3, #0]
 80028b0:	4618      	mov	r0, r3
 80028b2:	4b44      	ldr	r3, [pc, #272]	@ (80029c4 <USART_InitIT+0x3d4>)
 80028b4:	f853 3020 	ldr.w	r3, [r3, r0, lsl #2]
 80028b8:	430a      	orrs	r2, r1
 80028ba:	60da      	str	r2, [r3, #12]
      /* Configure Stop Bits */
      USART_Channel[ChannelHandle->Channel]->CR2 |= (ChannelHandle->StopBits & 0X3) << CR2_SB;
 80028bc:	687b      	ldr	r3, [r7, #4]
 80028be:	781b      	ldrb	r3, [r3, #0]
 80028c0:	461a      	mov	r2, r3
 80028c2:	4b40      	ldr	r3, [pc, #256]	@ (80029c4 <USART_InitIT+0x3d4>)
 80028c4:	f853 3022 	ldr.w	r3, [r3, r2, lsl #2]
 80028c8:	6919      	ldr	r1, [r3, #16]
 80028ca:	687b      	ldr	r3, [r7, #4]
 80028cc:	7a5b      	ldrb	r3, [r3, #9]
 80028ce:	031b      	lsls	r3, r3, #12
 80028d0:	f403 5240 	and.w	r2, r3, #12288	@ 0x3000
 80028d4:	687b      	ldr	r3, [r7, #4]
 80028d6:	781b      	ldrb	r3, [r3, #0]
 80028d8:	4618      	mov	r0, r3
 80028da:	4b3a      	ldr	r3, [pc, #232]	@ (80029c4 <USART_InitIT+0x3d4>)
 80028dc:	f853 3020 	ldr.w	r3, [r3, r0, lsl #2]
 80028e0:	430a      	orrs	r2, r1
 80028e2:	611a      	str	r2, [r3, #16]
      /* Configure Parity */
      if (ChannelHandle->Parity != USART_PARITY_NONE)
 80028e4:	687b      	ldr	r3, [r7, #4]
 80028e6:	7a9b      	ldrb	r3, [r3, #10]
 80028e8:	2b00      	cmp	r3, #0
 80028ea:	d023      	beq.n	8002934 <USART_InitIT+0x344>
      {
        /* Enable Parity */
        USART_Channel[ChannelHandle->Channel]->CR1 |= (1 << CR1_PCE);
 80028ec:	687b      	ldr	r3, [r7, #4]
 80028ee:	781b      	ldrb	r3, [r3, #0]
 80028f0:	461a      	mov	r2, r3
 80028f2:	4b34      	ldr	r3, [pc, #208]	@ (80029c4 <USART_InitIT+0x3d4>)
 80028f4:	f853 3022 	ldr.w	r3, [r3, r2, lsl #2]
 80028f8:	68da      	ldr	r2, [r3, #12]
 80028fa:	687b      	ldr	r3, [r7, #4]
 80028fc:	781b      	ldrb	r3, [r3, #0]
 80028fe:	4619      	mov	r1, r3
 8002900:	4b30      	ldr	r3, [pc, #192]	@ (80029c4 <USART_InitIT+0x3d4>)
 8002902:	f853 3021 	ldr.w	r3, [r3, r1, lsl #2]
 8002906:	f442 6280 	orr.w	r2, r2, #1024	@ 0x400
 800290a:	60da      	str	r2, [r3, #12]
        /* Configure Parity */
        USART_Channel[ChannelHandle->Channel]->CR1 |= (ChannelHandle->Parity & 0X1) << CR1_PS;
 800290c:	687b      	ldr	r3, [r7, #4]
 800290e:	781b      	ldrb	r3, [r3, #0]
 8002910:	461a      	mov	r2, r3
 8002912:	4b2c      	ldr	r3, [pc, #176]	@ (80029c4 <USART_InitIT+0x3d4>)
 8002914:	f853 3022 	ldr.w	r3, [r3, r2, lsl #2]
 8002918:	68d9      	ldr	r1, [r3, #12]
 800291a:	687b      	ldr	r3, [r7, #4]
 800291c:	7a9b      	ldrb	r3, [r3, #10]
 800291e:	025b      	lsls	r3, r3, #9
 8002920:	f403 7200 	and.w	r2, r3, #512	@ 0x200
 8002924:	687b      	ldr	r3, [r7, #4]
 8002926:	781b      	ldrb	r3, [r3, #0]
 8002928:	4618      	mov	r0, r3
 800292a:	4b26      	ldr	r3, [pc, #152]	@ (80029c4 <USART_InitIT+0x3d4>)
 800292c:	f853 3020 	ldr.w	r3, [r3, r0, lsl #2]
 8002930:	430a      	orrs	r2, r1
 8002932:	60da      	str	r2, [r3, #12]
      }

      /* Configure Mode */
      switch (ChannelHandle->Mode)
 8002934:	687b      	ldr	r3, [r7, #4]
 8002936:	7adb      	ldrb	r3, [r3, #11]
 8002938:	2b02      	cmp	r3, #2
 800293a:	d028      	beq.n	800298e <USART_InitIT+0x39e>
 800293c:	2b02      	cmp	r3, #2
 800293e:	dc43      	bgt.n	80029c8 <USART_InitIT+0x3d8>
 8002940:	2b00      	cmp	r3, #0
 8002942:	d002      	beq.n	800294a <USART_InitIT+0x35a>
 8002944:	2b01      	cmp	r3, #1
 8002946:	d011      	beq.n	800296c <USART_InitIT+0x37c>
 8002948:	e03e      	b.n	80029c8 <USART_InitIT+0x3d8>
      {
      case USART_MODE_TX_RX: /* Enable both transmitter and receiver */
        USART_Channel[ChannelHandle->Channel]->CR1 |= (1 << CR1_TE) | (1 << CR1_RE);
 800294a:	687b      	ldr	r3, [r7, #4]
 800294c:	781b      	ldrb	r3, [r3, #0]
 800294e:	461a      	mov	r2, r3
 8002950:	4b1c      	ldr	r3, [pc, #112]	@ (80029c4 <USART_InitIT+0x3d4>)
 8002952:	f853 3022 	ldr.w	r3, [r3, r2, lsl #2]
 8002956:	68da      	ldr	r2, [r3, #12]
 8002958:	687b      	ldr	r3, [r7, #4]
 800295a:	781b      	ldrb	r3, [r3, #0]
 800295c:	4619      	mov	r1, r3
 800295e:	4b19      	ldr	r3, [pc, #100]	@ (80029c4 <USART_InitIT+0x3d4>)
 8002960:	f853 3021 	ldr.w	r3, [r3, r1, lsl #2]
 8002964:	f042 020c 	orr.w	r2, r2, #12
 8002968:	60da      	str	r2, [r3, #12]
        break;
 800296a:	e031      	b.n	80029d0 <USART_InitIT+0x3e0>
      case USART_MODE_TX: /* Enable transmitter only */
        USART_Channel[ChannelHandle->Channel]->CR1 |= (1 << CR1_TE);
 800296c:	687b      	ldr	r3, [r7, #4]
 800296e:	781b      	ldrb	r3, [r3, #0]
 8002970:	461a      	mov	r2, r3
 8002972:	4b14      	ldr	r3, [pc, #80]	@ (80029c4 <USART_InitIT+0x3d4>)
 8002974:	f853 3022 	ldr.w	r3, [r3, r2, lsl #2]
 8002978:	68da      	ldr	r2, [r3, #12]
 800297a:	687b      	ldr	r3, [r7, #4]
 800297c:	781b      	ldrb	r3, [r3, #0]
 800297e:	4619      	mov	r1, r3
 8002980:	4b10      	ldr	r3, [pc, #64]	@ (80029c4 <USART_InitIT+0x3d4>)
 8002982:	f853 3021 	ldr.w	r3, [r3, r1, lsl #2]
 8002986:	f042 0208 	orr.w	r2, r2, #8
 800298a:	60da      	str	r2, [r3, #12]
        break;
 800298c:	e020      	b.n	80029d0 <USART_InitIT+0x3e0>
      case USART_MODE_RX: /* Enable receiver only */
        USART_Channel[ChannelHandle->Channel]->CR1 |= (1 << CR1_RE);
 800298e:	687b      	ldr	r3, [r7, #4]
 8002990:	781b      	ldrb	r3, [r3, #0]
 8002992:	461a      	mov	r2, r3
 8002994:	4b0b      	ldr	r3, [pc, #44]	@ (80029c4 <USART_InitIT+0x3d4>)
 8002996:	f853 3022 	ldr.w	r3, [r3, r2, lsl #2]
 800299a:	68da      	ldr	r2, [r3, #12]
 800299c:	687b      	ldr	r3, [r7, #4]
 800299e:	781b      	ldrb	r3, [r3, #0]
 80029a0:	4619      	mov	r1, r3
 80029a2:	4b08      	ldr	r3, [pc, #32]	@ (80029c4 <USART_InitIT+0x3d4>)
 80029a4:	f853 3021 	ldr.w	r3, [r3, r1, lsl #2]
 80029a8:	f042 0204 	orr.w	r2, r2, #4
 80029ac:	60da      	str	r2, [r3, #12]
        break;
 80029ae:	e00f      	b.n	80029d0 <USART_InitIT+0x3e0>
 80029b0:	00000000 	.word	0x00000000
 80029b4:	416e8480 	.word	0x416e8480
 80029b8:	40200000 	.word	0x40200000
 80029bc:	408f4000 	.word	0x408f4000
 80029c0:	10624dd3 	.word	0x10624dd3
 80029c4:	20000048 	.word	0x20000048
      default:
        Local_u8ErrorState = NOK;
 80029c8:	2301      	movs	r3, #1
 80029ca:	f887 3027 	strb.w	r3, [r7, #39]	@ 0x27
        break;
 80029ce:	bf00      	nop
      }
    }

    /* Configure Interrupts */
    USART_Channel[ChannelHandle->Channel]->CR1 |= (ChannelHandle->RXNEIE  & 0X1) << CR1_RXNEIE;
 80029d0:	687b      	ldr	r3, [r7, #4]
 80029d2:	781b      	ldrb	r3, [r3, #0]
 80029d4:	461a      	mov	r2, r3
 80029d6:	4b3f      	ldr	r3, [pc, #252]	@ (8002ad4 <USART_InitIT+0x4e4>)
 80029d8:	f853 3022 	ldr.w	r3, [r3, r2, lsl #2]
 80029dc:	68d9      	ldr	r1, [r3, #12]
 80029de:	687b      	ldr	r3, [r7, #4]
 80029e0:	7b9b      	ldrb	r3, [r3, #14]
 80029e2:	015b      	lsls	r3, r3, #5
 80029e4:	f003 0220 	and.w	r2, r3, #32
 80029e8:	687b      	ldr	r3, [r7, #4]
 80029ea:	781b      	ldrb	r3, [r3, #0]
 80029ec:	4618      	mov	r0, r3
 80029ee:	4b39      	ldr	r3, [pc, #228]	@ (8002ad4 <USART_InitIT+0x4e4>)
 80029f0:	f853 3020 	ldr.w	r3, [r3, r0, lsl #2]
 80029f4:	430a      	orrs	r2, r1
 80029f6:	60da      	str	r2, [r3, #12]
    USART_Channel[ChannelHandle->Channel]->CR1 |= (ChannelHandle->TCIE   & 0X1) << CR1_TCIE;
 80029f8:	687b      	ldr	r3, [r7, #4]
 80029fa:	781b      	ldrb	r3, [r3, #0]
 80029fc:	461a      	mov	r2, r3
 80029fe:	4b35      	ldr	r3, [pc, #212]	@ (8002ad4 <USART_InitIT+0x4e4>)
 8002a00:	f853 3022 	ldr.w	r3, [r3, r2, lsl #2]
 8002a04:	68d9      	ldr	r1, [r3, #12]
 8002a06:	687b      	ldr	r3, [r7, #4]
 8002a08:	7bdb      	ldrb	r3, [r3, #15]
 8002a0a:	019b      	lsls	r3, r3, #6
 8002a0c:	f003 0240 	and.w	r2, r3, #64	@ 0x40
 8002a10:	687b      	ldr	r3, [r7, #4]
 8002a12:	781b      	ldrb	r3, [r3, #0]
 8002a14:	4618      	mov	r0, r3
 8002a16:	4b2f      	ldr	r3, [pc, #188]	@ (8002ad4 <USART_InitIT+0x4e4>)
 8002a18:	f853 3020 	ldr.w	r3, [r3, r0, lsl #2]
 8002a1c:	430a      	orrs	r2, r1
 8002a1e:	60da      	str	r2, [r3, #12]
    USART_Channel[ChannelHandle->Channel]->CR1 |= (ChannelHandle->TXEIE  & 0X1) << CR1_TXEIE;
 8002a20:	687b      	ldr	r3, [r7, #4]
 8002a22:	781b      	ldrb	r3, [r3, #0]
 8002a24:	461a      	mov	r2, r3
 8002a26:	4b2b      	ldr	r3, [pc, #172]	@ (8002ad4 <USART_InitIT+0x4e4>)
 8002a28:	f853 3022 	ldr.w	r3, [r3, r2, lsl #2]
 8002a2c:	68d9      	ldr	r1, [r3, #12]
 8002a2e:	687b      	ldr	r3, [r7, #4]
 8002a30:	7c1b      	ldrb	r3, [r3, #16]
 8002a32:	01db      	lsls	r3, r3, #7
 8002a34:	b2da      	uxtb	r2, r3
 8002a36:	687b      	ldr	r3, [r7, #4]
 8002a38:	781b      	ldrb	r3, [r3, #0]
 8002a3a:	4618      	mov	r0, r3
 8002a3c:	4b25      	ldr	r3, [pc, #148]	@ (8002ad4 <USART_InitIT+0x4e4>)
 8002a3e:	f853 3020 	ldr.w	r3, [r3, r0, lsl #2]
 8002a42:	430a      	orrs	r2, r1
 8002a44:	60da      	str	r2, [r3, #12]
    USART_Channel[ChannelHandle->Channel]->CR1 |= (ChannelHandle->IDLEIE & 0X1) << CR1_IDLEIE;
 8002a46:	687b      	ldr	r3, [r7, #4]
 8002a48:	781b      	ldrb	r3, [r3, #0]
 8002a4a:	461a      	mov	r2, r3
 8002a4c:	4b21      	ldr	r3, [pc, #132]	@ (8002ad4 <USART_InitIT+0x4e4>)
 8002a4e:	f853 3022 	ldr.w	r3, [r3, r2, lsl #2]
 8002a52:	68d9      	ldr	r1, [r3, #12]
 8002a54:	687b      	ldr	r3, [r7, #4]
 8002a56:	7c5b      	ldrb	r3, [r3, #17]
 8002a58:	011b      	lsls	r3, r3, #4
 8002a5a:	f003 0210 	and.w	r2, r3, #16
 8002a5e:	687b      	ldr	r3, [r7, #4]
 8002a60:	781b      	ldrb	r3, [r3, #0]
 8002a62:	4618      	mov	r0, r3
 8002a64:	4b1b      	ldr	r3, [pc, #108]	@ (8002ad4 <USART_InitIT+0x4e4>)
 8002a66:	f853 3020 	ldr.w	r3, [r3, r0, lsl #2]
 8002a6a:	430a      	orrs	r2, r1
 8002a6c:	60da      	str	r2, [r3, #12]
    USART_Channel[ChannelHandle->Channel]->CR1 |= (ChannelHandle->PEIE   & 0X1) << CR1_PEIE;
 8002a6e:	687b      	ldr	r3, [r7, #4]
 8002a70:	781b      	ldrb	r3, [r3, #0]
 8002a72:	461a      	mov	r2, r3
 8002a74:	4b17      	ldr	r3, [pc, #92]	@ (8002ad4 <USART_InitIT+0x4e4>)
 8002a76:	f853 3022 	ldr.w	r3, [r3, r2, lsl #2]
 8002a7a:	68d9      	ldr	r1, [r3, #12]
 8002a7c:	687b      	ldr	r3, [r7, #4]
 8002a7e:	7c9b      	ldrb	r3, [r3, #18]
 8002a80:	021b      	lsls	r3, r3, #8
 8002a82:	f403 7280 	and.w	r2, r3, #256	@ 0x100
 8002a86:	687b      	ldr	r3, [r7, #4]
 8002a88:	781b      	ldrb	r3, [r3, #0]
 8002a8a:	4618      	mov	r0, r3
 8002a8c:	4b11      	ldr	r3, [pc, #68]	@ (8002ad4 <USART_InitIT+0x4e4>)
 8002a8e:	f853 3020 	ldr.w	r3, [r3, r0, lsl #2]
 8002a92:	430a      	orrs	r2, r1
 8002a94:	60da      	str	r2, [r3, #12]

    /* Store Callback Function */
    USART_CallBack[ChannelHandle->Channel] = ChannelHandle->pfnCallback;
 8002a96:	687b      	ldr	r3, [r7, #4]
 8002a98:	781b      	ldrb	r3, [r3, #0]
 8002a9a:	4619      	mov	r1, r3
 8002a9c:	687b      	ldr	r3, [r7, #4]
 8002a9e:	695b      	ldr	r3, [r3, #20]
 8002aa0:	4a0d      	ldr	r2, [pc, #52]	@ (8002ad8 <USART_InitIT+0x4e8>)
 8002aa2:	f842 3021 	str.w	r3, [r2, r1, lsl #2]

    /* Enable USART */
    USART_Channel[ChannelHandle->Channel]->CR1 |= (1 << 13);
 8002aa6:	687b      	ldr	r3, [r7, #4]
 8002aa8:	781b      	ldrb	r3, [r3, #0]
 8002aaa:	461a      	mov	r2, r3
 8002aac:	4b09      	ldr	r3, [pc, #36]	@ (8002ad4 <USART_InitIT+0x4e4>)
 8002aae:	f853 3022 	ldr.w	r3, [r3, r2, lsl #2]
 8002ab2:	68da      	ldr	r2, [r3, #12]
 8002ab4:	687b      	ldr	r3, [r7, #4]
 8002ab6:	781b      	ldrb	r3, [r3, #0]
 8002ab8:	4619      	mov	r1, r3
 8002aba:	4b06      	ldr	r3, [pc, #24]	@ (8002ad4 <USART_InitIT+0x4e4>)
 8002abc:	f853 3021 	ldr.w	r3, [r3, r1, lsl #2]
 8002ac0:	f442 5200 	orr.w	r2, r2, #8192	@ 0x2000
 8002ac4:	60da      	str	r2, [r3, #12]

  }
  return Local_u8ErrorState;
 8002ac6:	f897 3027 	ldrb.w	r3, [r7, #39]	@ 0x27

}
 8002aca:	4618      	mov	r0, r3
 8002acc:	3728      	adds	r7, #40	@ 0x28
 8002ace:	46bd      	mov	sp, r7
 8002ad0:	bdb0      	pop	{r4, r5, r7, pc}
 8002ad2:	bf00      	nop
 8002ad4:	20000048 	.word	0x20000048
 8002ad8:	2000048c 	.word	0x2000048c

08002adc <USART_enumTransmit>:
 * @return ErrorState_t OK if successful, error code otherwise
 *
 * @warning NULL pointer check is performed on input parameter
 */
ErrorState_t USART_enumTransmit(const USART_Handle_t *ChannelConfig, uint8_t TX_Data)
{
 8002adc:	b480      	push	{r7}
 8002ade:	b085      	sub	sp, #20
 8002ae0:	af00      	add	r7, sp, #0
 8002ae2:	6078      	str	r0, [r7, #4]
 8002ae4:	460b      	mov	r3, r1
 8002ae6:	70fb      	strb	r3, [r7, #3]
  ErrorState_t Local_u8ErrorState = OK;
 8002ae8:	2300      	movs	r3, #0
 8002aea:	73fb      	strb	r3, [r7, #15]
  ErrorState_t Local_u32TimeoutCounter = 0;
 8002aec:	2300      	movs	r3, #0
 8002aee:	73bb      	strb	r3, [r7, #14]

  if (ChannelConfig->Channel > USART_CHANNEL_COUNT)
 8002af0:	687b      	ldr	r3, [r7, #4]
 8002af2:	781b      	ldrb	r3, [r3, #0]
 8002af4:	2b06      	cmp	r3, #6
 8002af6:	d902      	bls.n	8002afe <USART_enumTransmit+0x22>
  {
    Local_u8ErrorState = NULL_POINTER;
 8002af8:	2302      	movs	r3, #2
 8002afa:	73fb      	strb	r3, [r7, #15]
 8002afc:	e02c      	b.n	8002b58 <USART_enumTransmit+0x7c>
  }
  else
  {
    if (USART_u8State[ChannelConfig->Channel] == IDLE)
 8002afe:	687b      	ldr	r3, [r7, #4]
 8002b00:	781b      	ldrb	r3, [r3, #0]
 8002b02:	461a      	mov	r2, r3
 8002b04:	4b17      	ldr	r3, [pc, #92]	@ (8002b64 <USART_enumTransmit+0x88>)
 8002b06:	5c9b      	ldrb	r3, [r3, r2]
 8002b08:	2b00      	cmp	r3, #0
 8002b0a:	d123      	bne.n	8002b54 <USART_enumTransmit+0x78>
    {
      USART_u8State[ChannelConfig->Channel] = BUSY;
 8002b0c:	687b      	ldr	r3, [r7, #4]
 8002b0e:	781b      	ldrb	r3, [r3, #0]
 8002b10:	461a      	mov	r2, r3
 8002b12:	4b14      	ldr	r3, [pc, #80]	@ (8002b64 <USART_enumTransmit+0x88>)
 8002b14:	2101      	movs	r1, #1
 8002b16:	5499      	strb	r1, [r3, r2]

      while((USART_Channel[ChannelConfig->Channel]->SR & (1 << SR_TXE)) >> SR_TXE == 0 && (Local_u32TimeoutCounter != USART_u32TIMEOUT))
 8002b18:	e002      	b.n	8002b20 <USART_enumTransmit+0x44>
      {
        Local_u32TimeoutCounter++;
 8002b1a:	7bbb      	ldrb	r3, [r7, #14]
 8002b1c:	3301      	adds	r3, #1
 8002b1e:	73bb      	strb	r3, [r7, #14]
      while((USART_Channel[ChannelConfig->Channel]->SR & (1 << SR_TXE)) >> SR_TXE == 0 && (Local_u32TimeoutCounter != USART_u32TIMEOUT))
 8002b20:	687b      	ldr	r3, [r7, #4]
 8002b22:	781b      	ldrb	r3, [r3, #0]
 8002b24:	461a      	mov	r2, r3
 8002b26:	4b10      	ldr	r3, [pc, #64]	@ (8002b68 <USART_enumTransmit+0x8c>)
 8002b28:	f853 3022 	ldr.w	r3, [r3, r2, lsl #2]
 8002b2c:	681b      	ldr	r3, [r3, #0]
 8002b2e:	f003 0380 	and.w	r3, r3, #128	@ 0x80
 8002b32:	2b00      	cmp	r3, #0
 8002b34:	d0f1      	beq.n	8002b1a <USART_enumTransmit+0x3e>
        Local_u8ErrorState = TIMEOUT_STATE;
      }
      else
      {
        /* Store Data */
        USART_Channel[ChannelConfig->Channel]->DR = TX_Data;
 8002b36:	687b      	ldr	r3, [r7, #4]
 8002b38:	781b      	ldrb	r3, [r3, #0]
 8002b3a:	461a      	mov	r2, r3
 8002b3c:	4b0a      	ldr	r3, [pc, #40]	@ (8002b68 <USART_enumTransmit+0x8c>)
 8002b3e:	f853 3022 	ldr.w	r3, [r3, r2, lsl #2]
 8002b42:	78fa      	ldrb	r2, [r7, #3]
 8002b44:	605a      	str	r2, [r3, #4]
      }

      USART_u8State[ChannelConfig->Channel] = IDLE;
 8002b46:	687b      	ldr	r3, [r7, #4]
 8002b48:	781b      	ldrb	r3, [r3, #0]
 8002b4a:	461a      	mov	r2, r3
 8002b4c:	4b05      	ldr	r3, [pc, #20]	@ (8002b64 <USART_enumTransmit+0x88>)
 8002b4e:	2100      	movs	r1, #0
 8002b50:	5499      	strb	r1, [r3, r2]
 8002b52:	e001      	b.n	8002b58 <USART_enumTransmit+0x7c>
    }
    else
    {
      Local_u8ErrorState = BUSY_STATE;
 8002b54:	2303      	movs	r3, #3
 8002b56:	73fb      	strb	r3, [r7, #15]
    }
  }
  return Local_u8ErrorState;
 8002b58:	7bfb      	ldrb	r3, [r7, #15]
}
 8002b5a:	4618      	mov	r0, r3
 8002b5c:	3714      	adds	r7, #20
 8002b5e:	46bd      	mov	sp, r7
 8002b60:	bc80      	pop	{r7}
 8002b62:	4770      	bx	lr
 8002b64:	20000484 	.word	0x20000484
 8002b68:	20000048 	.word	0x20000048

08002b6c <USART_enumReceive>:
 * @return ErrorState_t OK if successful, error code otherwise
 *
 * @warning NULL pointer check is performed on input parameter
 */
ErrorState_t USART_enumReceive(const USART_Handle_t *ChannelConfig, uint8_t *RX_Data)
{
 8002b6c:	b480      	push	{r7}
 8002b6e:	b085      	sub	sp, #20
 8002b70:	af00      	add	r7, sp, #0
 8002b72:	6078      	str	r0, [r7, #4]
 8002b74:	6039      	str	r1, [r7, #0]

  ErrorState_t Local_u8ErrorState = OK;
 8002b76:	2300      	movs	r3, #0
 8002b78:	73fb      	strb	r3, [r7, #15]
  uint32_t Local_u32TimeoutCounter = 0;
 8002b7a:	2300      	movs	r3, #0
 8002b7c:	60bb      	str	r3, [r7, #8]

  if (ChannelConfig->Channel > USART_CHANNEL_COUNT || RX_Data == NULL)
 8002b7e:	687b      	ldr	r3, [r7, #4]
 8002b80:	781b      	ldrb	r3, [r3, #0]
 8002b82:	2b06      	cmp	r3, #6
 8002b84:	d802      	bhi.n	8002b8c <USART_enumReceive+0x20>
 8002b86:	683b      	ldr	r3, [r7, #0]
 8002b88:	2b00      	cmp	r3, #0
 8002b8a:	d102      	bne.n	8002b92 <USART_enumReceive+0x26>
  {
    Local_u8ErrorState = NULL_POINTER;
 8002b8c:	2302      	movs	r3, #2
 8002b8e:	73fb      	strb	r3, [r7, #15]
 8002b90:	e03b      	b.n	8002c0a <USART_enumReceive+0x9e>
  }
  else
  {
    if (USART_u8State[ChannelConfig->Channel] == IDLE)
 8002b92:	687b      	ldr	r3, [r7, #4]
 8002b94:	781b      	ldrb	r3, [r3, #0]
 8002b96:	461a      	mov	r2, r3
 8002b98:	4b1f      	ldr	r3, [pc, #124]	@ (8002c18 <USART_enumReceive+0xac>)
 8002b9a:	5c9b      	ldrb	r3, [r3, r2]
 8002b9c:	2b00      	cmp	r3, #0
 8002b9e:	d132      	bne.n	8002c06 <USART_enumReceive+0x9a>
    {
      USART_u8State[ChannelConfig->Channel] = BUSY;
 8002ba0:	687b      	ldr	r3, [r7, #4]
 8002ba2:	781b      	ldrb	r3, [r3, #0]
 8002ba4:	461a      	mov	r2, r3
 8002ba6:	4b1c      	ldr	r3, [pc, #112]	@ (8002c18 <USART_enumReceive+0xac>)
 8002ba8:	2101      	movs	r1, #1
 8002baa:	5499      	strb	r1, [r3, r2]

      while((USART_Channel[ChannelConfig->Channel]->SR & (1 << SR_RXNE)) >> SR_RXNE == 0 && Local_u32TimeoutCounter != USART_u32TIMEOUT)
 8002bac:	e002      	b.n	8002bb4 <USART_enumReceive+0x48>
      {
        Local_u32TimeoutCounter++;
 8002bae:	68bb      	ldr	r3, [r7, #8]
 8002bb0:	3301      	adds	r3, #1
 8002bb2:	60bb      	str	r3, [r7, #8]
      while((USART_Channel[ChannelConfig->Channel]->SR & (1 << SR_RXNE)) >> SR_RXNE == 0 && Local_u32TimeoutCounter != USART_u32TIMEOUT)
 8002bb4:	687b      	ldr	r3, [r7, #4]
 8002bb6:	781b      	ldrb	r3, [r3, #0]
 8002bb8:	461a      	mov	r2, r3
 8002bba:	4b18      	ldr	r3, [pc, #96]	@ (8002c1c <USART_enumReceive+0xb0>)
 8002bbc:	f853 3022 	ldr.w	r3, [r3, r2, lsl #2]
 8002bc0:	681b      	ldr	r3, [r3, #0]
 8002bc2:	f003 0320 	and.w	r3, r3, #32
 8002bc6:	2b00      	cmp	r3, #0
 8002bc8:	d104      	bne.n	8002bd4 <USART_enumReceive+0x68>
 8002bca:	68bb      	ldr	r3, [r7, #8]
 8002bcc:	f242 7210 	movw	r2, #10000	@ 0x2710
 8002bd0:	4293      	cmp	r3, r2
 8002bd2:	d1ec      	bne.n	8002bae <USART_enumReceive+0x42>
      }

      if (Local_u32TimeoutCounter == USART_u32TIMEOUT)
 8002bd4:	68bb      	ldr	r3, [r7, #8]
 8002bd6:	f242 7210 	movw	r2, #10000	@ 0x2710
 8002bda:	4293      	cmp	r3, r2
 8002bdc:	d102      	bne.n	8002be4 <USART_enumReceive+0x78>
      {
        Local_u8ErrorState = TIMEOUT_STATE;
 8002bde:	2304      	movs	r3, #4
 8002be0:	73fb      	strb	r3, [r7, #15]
 8002be2:	e009      	b.n	8002bf8 <USART_enumReceive+0x8c>
      }
      else
      {
        /* Store Data */
        *RX_Data = USART_Channel[ChannelConfig->Channel]->DR;
 8002be4:	687b      	ldr	r3, [r7, #4]
 8002be6:	781b      	ldrb	r3, [r3, #0]
 8002be8:	461a      	mov	r2, r3
 8002bea:	4b0c      	ldr	r3, [pc, #48]	@ (8002c1c <USART_enumReceive+0xb0>)
 8002bec:	f853 3022 	ldr.w	r3, [r3, r2, lsl #2]
 8002bf0:	685b      	ldr	r3, [r3, #4]
 8002bf2:	b2da      	uxtb	r2, r3
 8002bf4:	683b      	ldr	r3, [r7, #0]
 8002bf6:	701a      	strb	r2, [r3, #0]
      }

      USART_u8State[ChannelConfig->Channel] = IDLE;
 8002bf8:	687b      	ldr	r3, [r7, #4]
 8002bfa:	781b      	ldrb	r3, [r3, #0]
 8002bfc:	461a      	mov	r2, r3
 8002bfe:	4b06      	ldr	r3, [pc, #24]	@ (8002c18 <USART_enumReceive+0xac>)
 8002c00:	2100      	movs	r1, #0
 8002c02:	5499      	strb	r1, [r3, r2]
 8002c04:	e001      	b.n	8002c0a <USART_enumReceive+0x9e>
    }
    else
    {
      Local_u8ErrorState = BUSY_STATE;
 8002c06:	2303      	movs	r3, #3
 8002c08:	73fb      	strb	r3, [r7, #15]
    }
  }
  return Local_u8ErrorState;
 8002c0a:	7bfb      	ldrb	r3, [r7, #15]
}
 8002c0c:	4618      	mov	r0, r3
 8002c0e:	3714      	adds	r7, #20
 8002c10:	46bd      	mov	sp, r7
 8002c12:	bc80      	pop	{r7}
 8002c14:	4770      	bx	lr
 8002c16:	bf00      	nop
 8002c18:	20000484 	.word	0x20000484
 8002c1c:	20000048 	.word	0x20000048

08002c20 <USART1_IRQHandler>:
 * @brief USART1 interrupt handler.
 *
 * This function handles the USART1 interrupt.
 */
void USART1_IRQHandler(void)
{
 8002c20:	b580      	push	{r7, lr}
 8002c22:	af00      	add	r7, sp, #0
  if (USART_CallBack[USART_CHANNEL1] != NULL)
 8002c24:	4b04      	ldr	r3, [pc, #16]	@ (8002c38 <USART1_IRQHandler+0x18>)
 8002c26:	681b      	ldr	r3, [r3, #0]
 8002c28:	2b00      	cmp	r3, #0
 8002c2a:	d002      	beq.n	8002c32 <USART1_IRQHandler+0x12>
  {
    USART_CallBack[USART_CHANNEL1]();
 8002c2c:	4b02      	ldr	r3, [pc, #8]	@ (8002c38 <USART1_IRQHandler+0x18>)
 8002c2e:	681b      	ldr	r3, [r3, #0]
 8002c30:	4798      	blx	r3
  }
}
 8002c32:	bf00      	nop
 8002c34:	bd80      	pop	{r7, pc}
 8002c36:	bf00      	nop
 8002c38:	2000048c 	.word	0x2000048c

08002c3c <USART2_IRQHandler>:
 * @brief USART2 interrupt handler.
 *
 * This function handles the USART2 interrupt.
 */
void USART2_IRQHandler(void)
{
 8002c3c:	b580      	push	{r7, lr}
 8002c3e:	af00      	add	r7, sp, #0
  if (USART_CallBack[USART_CHANNEL2] != NULL)
 8002c40:	4b04      	ldr	r3, [pc, #16]	@ (8002c54 <USART2_IRQHandler+0x18>)
 8002c42:	685b      	ldr	r3, [r3, #4]
 8002c44:	2b00      	cmp	r3, #0
 8002c46:	d002      	beq.n	8002c4e <USART2_IRQHandler+0x12>
  {
    USART_CallBack[USART_CHANNEL2]();
 8002c48:	4b02      	ldr	r3, [pc, #8]	@ (8002c54 <USART2_IRQHandler+0x18>)
 8002c4a:	685b      	ldr	r3, [r3, #4]
 8002c4c:	4798      	blx	r3
  }
}
 8002c4e:	bf00      	nop
 8002c50:	bd80      	pop	{r7, pc}
 8002c52:	bf00      	nop
 8002c54:	2000048c 	.word	0x2000048c

08002c58 <USART3_IRQHandler>:
 * @brief USART3 interrupt handler.
 *
 * This function handles the USART3 interrupt.
 */
void USART3_IRQHandler(void)
{
 8002c58:	b580      	push	{r7, lr}
 8002c5a:	af00      	add	r7, sp, #0
  if (USART_CallBack[USART_CHANNEL3] != NULL)
 8002c5c:	4b04      	ldr	r3, [pc, #16]	@ (8002c70 <USART3_IRQHandler+0x18>)
 8002c5e:	689b      	ldr	r3, [r3, #8]
 8002c60:	2b00      	cmp	r3, #0
 8002c62:	d002      	beq.n	8002c6a <USART3_IRQHandler+0x12>
  {
    USART_CallBack[USART_CHANNEL3]();
 8002c64:	4b02      	ldr	r3, [pc, #8]	@ (8002c70 <USART3_IRQHandler+0x18>)
 8002c66:	689b      	ldr	r3, [r3, #8]
 8002c68:	4798      	blx	r3
  }
}
 8002c6a:	bf00      	nop
 8002c6c:	bd80      	pop	{r7, pc}
 8002c6e:	bf00      	nop
 8002c70:	2000048c 	.word	0x2000048c

08002c74 <USART6_IRQHandler>:
 * @brief USART6 interrupt handler.
 *
 * This function handles the USART6 interrupt.
 */
void USART6_IRQHandler(void)
{
 8002c74:	b580      	push	{r7, lr}
 8002c76:	af00      	add	r7, sp, #0
  if (USART_CallBack[USART_CHANNEL6] != NULL)
 8002c78:	4b04      	ldr	r3, [pc, #16]	@ (8002c8c <USART6_IRQHandler+0x18>)
 8002c7a:	695b      	ldr	r3, [r3, #20]
 8002c7c:	2b00      	cmp	r3, #0
 8002c7e:	d002      	beq.n	8002c86 <USART6_IRQHandler+0x12>
  {
    USART_CallBack[USART_CHANNEL6]();
 8002c80:	4b02      	ldr	r3, [pc, #8]	@ (8002c8c <USART6_IRQHandler+0x18>)
 8002c82:	695b      	ldr	r3, [r3, #20]
 8002c84:	4798      	blx	r3
  }
}
 8002c86:	bf00      	nop
 8002c88:	bd80      	pop	{r7, pc}
 8002c8a:	bf00      	nop
 8002c8c:	2000048c 	.word	0x2000048c

08002c90 <simulate_self>:

// ====== Simulate Own Data ======
static float sim_angle = 0.0f;

Neighbor simulate_self(uint8_t id)
{
 8002c90:	b5b0      	push	{r4, r5, r7, lr}
 8002c92:	b08a      	sub	sp, #40	@ 0x28
 8002c94:	af00      	add	r7, sp, #0
 8002c96:	6078      	str	r0, [r7, #4]
 8002c98:	460b      	mov	r3, r1
 8002c9a:	70fb      	strb	r3, [r7, #3]
  Neighbor n;
  n.vehicle_id = id;
 8002c9c:	78fb      	ldrb	r3, [r7, #3]
 8002c9e:	733b      	strb	r3, [r7, #12]
  n.speed = 40.0f + 10.0f * sinf(sim_angle * 0.5f);
 8002ca0:	4b1e      	ldr	r3, [pc, #120]	@ (8002d1c <simulate_self+0x8c>)
 8002ca2:	681b      	ldr	r3, [r3, #0]
 8002ca4:	f04f 517c 	mov.w	r1, #1056964608	@ 0x3f000000
 8002ca8:	4618      	mov	r0, r3
 8002caa:	f7fd ffa9 	bl	8000c00 <__aeabi_fmul>
 8002cae:	4603      	mov	r3, r0
 8002cb0:	4618      	mov	r0, r3
 8002cb2:	f000 f8e5 	bl	8002e80 <sinf>
 8002cb6:	4603      	mov	r3, r0
 8002cb8:	4919      	ldr	r1, [pc, #100]	@ (8002d20 <simulate_self+0x90>)
 8002cba:	4618      	mov	r0, r3
 8002cbc:	f7fd ffa0 	bl	8000c00 <__aeabi_fmul>
 8002cc0:	4603      	mov	r3, r0
 8002cc2:	4918      	ldr	r1, [pc, #96]	@ (8002d24 <simulate_self+0x94>)
 8002cc4:	4618      	mov	r0, r3
 8002cc6:	f7fd fe93 	bl	80009f0 <__addsf3>
 8002cca:	4603      	mov	r3, r0
 8002ccc:	613b      	str	r3, [r7, #16]
  n.heading = fmodf(sim_angle * 57.295f, 360.0f);
 8002cce:	4b13      	ldr	r3, [pc, #76]	@ (8002d1c <simulate_self+0x8c>)
 8002cd0:	681b      	ldr	r3, [r3, #0]
 8002cd2:	4915      	ldr	r1, [pc, #84]	@ (8002d28 <simulate_self+0x98>)
 8002cd4:	4618      	mov	r0, r3
 8002cd6:	f7fd ff93 	bl	8000c00 <__aeabi_fmul>
 8002cda:	4603      	mov	r3, r0
 8002cdc:	4913      	ldr	r1, [pc, #76]	@ (8002d2c <simulate_self+0x9c>)
 8002cde:	4618      	mov	r0, r3
 8002ce0:	f000 f8b0 	bl	8002e44 <fmodf>
 8002ce4:	4603      	mov	r3, r0
 8002ce6:	617b      	str	r3, [r7, #20]
  n.last_update = 0;
 8002ce8:	2300      	movs	r3, #0
 8002cea:	61bb      	str	r3, [r7, #24]
  sim_angle += 0.05f;
 8002cec:	4b0b      	ldr	r3, [pc, #44]	@ (8002d1c <simulate_self+0x8c>)
 8002cee:	681b      	ldr	r3, [r3, #0]
 8002cf0:	490f      	ldr	r1, [pc, #60]	@ (8002d30 <simulate_self+0xa0>)
 8002cf2:	4618      	mov	r0, r3
 8002cf4:	f7fd fe7c 	bl	80009f0 <__addsf3>
 8002cf8:	4603      	mov	r3, r0
 8002cfa:	461a      	mov	r2, r3
 8002cfc:	4b07      	ldr	r3, [pc, #28]	@ (8002d1c <simulate_self+0x8c>)
 8002cfe:	601a      	str	r2, [r3, #0]
  return n;
 8002d00:	687b      	ldr	r3, [r7, #4]
 8002d02:	461d      	mov	r5, r3
 8002d04:	f107 040c 	add.w	r4, r7, #12
 8002d08:	cc0f      	ldmia	r4!, {r0, r1, r2, r3}
 8002d0a:	c50f      	stmia	r5!, {r0, r1, r2, r3}
 8002d0c:	e894 0007 	ldmia.w	r4, {r0, r1, r2}
 8002d10:	e885 0007 	stmia.w	r5, {r0, r1, r2}
}
 8002d14:	6878      	ldr	r0, [r7, #4]
 8002d16:	3728      	adds	r7, #40	@ 0x28
 8002d18:	46bd      	mov	sp, r7
 8002d1a:	bdb0      	pop	{r4, r5, r7, pc}
 8002d1c:	200004a4 	.word	0x200004a4
 8002d20:	41200000 	.word	0x41200000
 8002d24:	42200000 	.word	0x42200000
 8002d28:	42652e14 	.word	0x42652e14
 8002d2c:	43b40000 	.word	0x43b40000
 8002d30:	3d4ccccd 	.word	0x3d4ccccd

08002d34 <main>:

// ============================================================
// Main
// ============================================================
int main(void)
{
 8002d34:	b580      	push	{r7, lr}
 8002d36:	b088      	sub	sp, #32
 8002d38:	af00      	add	r7, sp, #0
  System_Init();
 8002d3a:	f7ff fc21 	bl	8002580 <System_Init>
  SafetyEngine_voidInit();
 8002d3e:	f7ff fab1 	bl	80022a4 <SafetyEngine_voidInit>

  while (1)
  {
    // process received DSRC packets
    DSRC_Update();
 8002d42:	f7fe fc81 	bl	8001648 <DSRC_Update>

    // single-pass safety processing (FCW + EEBL in one loop)
    SafetyEngine_voidUpdate();
 8002d46:	f7ff fabb 	bl	80022c0 <SafetyEngine_voidUpdate>

    // send own data with local FCW flag attached
    Neighbor self = simulate_self(VEHICLE_ID);
 8002d4a:	1d3b      	adds	r3, r7, #4
 8002d4c:	2101      	movs	r1, #1
 8002d4e:	4618      	mov	r0, r3
 8002d50:	f7ff ff9e 	bl	8002c90 <simulate_self>
    self.fcw_flag  = FCW_u8GetFlag();
 8002d54:	f7fe fe7a 	bl	8001a4c <FCW_u8GetFlag>
 8002d58:	4603      	mov	r3, r0
 8002d5a:	753b      	strb	r3, [r7, #20]
    self.dnpw_flag = DNPW_u8GetFlag();
 8002d5c:	f7fe fac6 	bl	80012ec <DNPW_u8GetFlag>
 8002d60:	4603      	mov	r3, r0
 8002d62:	757b      	strb	r3, [r7, #21]
    self.ima_flag  = IMA_u8GetFlag();
 8002d64:	f7ff f8d4 	bl	8001f10 <IMA_u8GetFlag>
 8002d68:	4603      	mov	r3, r0
 8002d6a:	773b      	strb	r3, [r7, #28]
    self.distance_to_intersection = Host_DistToIntersection;
 8002d6c:	4b06      	ldr	r3, [pc, #24]	@ (8002d88 <main+0x54>)
 8002d6e:	681b      	ldr	r3, [r3, #0]
 8002d70:	61bb      	str	r3, [r7, #24]
    DSRC_SendNeighbor(&self);
 8002d72:	1d3b      	adds	r3, r7, #4
 8002d74:	4618      	mov	r0, r3
 8002d76:	f7fe fc21 	bl	80015bc <DSRC_SendNeighbor>

    SYSTIC_vDelayMs(500);
 8002d7a:	f44f 70fa 	mov.w	r0, #500	@ 0x1f4
 8002d7e:	f7ff fa33 	bl	80021e8 <SYSTIC_vDelayMs>
  {
 8002d82:	bf00      	nop
 8002d84:	e7dd      	b.n	8002d42 <main+0xe>
 8002d86:	bf00      	nop
 8002d88:	20000480 	.word	0x20000480

08002d8c <Reset_Handler>:

  .section .text.Reset_Handler
  .weak Reset_Handler
  .type Reset_Handler, %function
Reset_Handler:
  ldr   r0, =_estack
 8002d8c:	480d      	ldr	r0, [pc, #52]	@ (8002dc4 <LoopForever+0x2>)
  mov   sp, r0          /* set stack pointer */
 8002d8e:	4685      	mov	sp, r0
/* Call the clock system initialization function.*/
  bl  SystemInit
 8002d90:	f3af 8000 	nop.w

/* Copy the data segment initializers from flash to SRAM */
  ldr r0, =_sdata
 8002d94:	480c      	ldr	r0, [pc, #48]	@ (8002dc8 <LoopForever+0x6>)
  ldr r1, =_edata
 8002d96:	490d      	ldr	r1, [pc, #52]	@ (8002dcc <LoopForever+0xa>)
  ldr r2, =_sidata
 8002d98:	4a0d      	ldr	r2, [pc, #52]	@ (8002dd0 <LoopForever+0xe>)
  movs r3, #0
 8002d9a:	2300      	movs	r3, #0
  b LoopCopyDataInit
 8002d9c:	e002      	b.n	8002da4 <LoopCopyDataInit>

08002d9e <CopyDataInit>:

CopyDataInit:
  ldr r4, [r2, r3]
 8002d9e:	58d4      	ldr	r4, [r2, r3]
  str r4, [r0, r3]
 8002da0:	50c4      	str	r4, [r0, r3]
  adds r3, r3, #4
 8002da2:	3304      	adds	r3, #4

08002da4 <LoopCopyDataInit>:

LoopCopyDataInit:
  adds r4, r0, r3
 8002da4:	18c4      	adds	r4, r0, r3
  cmp r4, r1
 8002da6:	428c      	cmp	r4, r1
  bcc CopyDataInit
 8002da8:	d3f9      	bcc.n	8002d9e <CopyDataInit>

/* Zero fill the bss segment. */
  ldr r2, =_sbss
 8002daa:	4a0a      	ldr	r2, [pc, #40]	@ (8002dd4 <LoopForever+0x12>)
  ldr r4, =_ebss
 8002dac:	4c0a      	ldr	r4, [pc, #40]	@ (8002dd8 <LoopForever+0x16>)
  movs r3, #0
 8002dae:	2300      	movs	r3, #0
  b LoopFillZerobss
 8002db0:	e001      	b.n	8002db6 <LoopFillZerobss>

08002db2 <FillZerobss>:

FillZerobss:
  str  r3, [r2]
 8002db2:	6013      	str	r3, [r2, #0]
  adds r2, r2, #4
 8002db4:	3204      	adds	r2, #4

08002db6 <LoopFillZerobss>:

LoopFillZerobss:
  cmp r2, r4
 8002db6:	42a2      	cmp	r2, r4
  bcc FillZerobss
 8002db8:	d3fb      	bcc.n	8002db2 <FillZerobss>


/* Call static constructors */
  bl __libc_init_array
 8002dba:	f000 f81f 	bl	8002dfc <__libc_init_array>
/* Call the application's entry point.*/

  bl main
 8002dbe:	f7ff ffb9 	bl	8002d34 <main>

08002dc2 <LoopForever>:

LoopForever:
  b LoopForever
 8002dc2:	e7fe      	b.n	8002dc2 <LoopForever>
  ldr   r0, =_estack
 8002dc4:	20020000 	.word	0x20020000
  ldr r0, =_sdata
 8002dc8:	20000000 	.word	0x20000000
  ldr r1, =_edata
 8002dcc:	200000b0 	.word	0x200000b0
  ldr r2, =_sidata
 8002dd0:	08004240 	.word	0x08004240
  ldr r2, =_sbss
 8002dd4:	200000b0 	.word	0x200000b0
  ldr r4, =_ebss
 8002dd8:	200005e0 	.word	0x200005e0

08002ddc <ADC_IRQHandler>:
 * @retval : None
*/
  .section .text.Default_Handler,"ax",%progbits
Default_Handler:
Infinite_Loop:
  b Infinite_Loop
 8002ddc:	e7fe      	b.n	8002ddc <ADC_IRQHandler>

08002dde <memset>:
 8002dde:	4402      	add	r2, r0
 8002de0:	4603      	mov	r3, r0
 8002de2:	4293      	cmp	r3, r2
 8002de4:	d100      	bne.n	8002de8 <memset+0xa>
 8002de6:	4770      	bx	lr
 8002de8:	f803 1b01 	strb.w	r1, [r3], #1
 8002dec:	e7f9      	b.n	8002de2 <memset+0x4>
	...

08002df0 <__errno>:
 8002df0:	4b01      	ldr	r3, [pc, #4]	@ (8002df8 <__errno+0x8>)
 8002df2:	6818      	ldr	r0, [r3, #0]
 8002df4:	4770      	bx	lr
 8002df6:	bf00      	nop
 8002df8:	20000060 	.word	0x20000060

08002dfc <__libc_init_array>:
 8002dfc:	b570      	push	{r4, r5, r6, lr}
 8002dfe:	4b0d      	ldr	r3, [pc, #52]	@ (8002e34 <__libc_init_array+0x38>)
 8002e00:	4d0d      	ldr	r5, [pc, #52]	@ (8002e38 <__libc_init_array+0x3c>)
 8002e02:	1b5b      	subs	r3, r3, r5
 8002e04:	109c      	asrs	r4, r3, #2
 8002e06:	2600      	movs	r6, #0
 8002e08:	42a6      	cmp	r6, r4
 8002e0a:	d109      	bne.n	8002e20 <__libc_init_array+0x24>
 8002e0c:	f001 f81c 	bl	8003e48 <_init>
 8002e10:	4d0a      	ldr	r5, [pc, #40]	@ (8002e3c <__libc_init_array+0x40>)
 8002e12:	4b0b      	ldr	r3, [pc, #44]	@ (8002e40 <__libc_init_array+0x44>)
 8002e14:	1b5b      	subs	r3, r3, r5
 8002e16:	109c      	asrs	r4, r3, #2
 8002e18:	2600      	movs	r6, #0
 8002e1a:	42a6      	cmp	r6, r4
 8002e1c:	d105      	bne.n	8002e2a <__libc_init_array+0x2e>
 8002e1e:	bd70      	pop	{r4, r5, r6, pc}
 8002e20:	f855 3b04 	ldr.w	r3, [r5], #4
 8002e24:	4798      	blx	r3
 8002e26:	3601      	adds	r6, #1
 8002e28:	e7ee      	b.n	8002e08 <__libc_init_array+0xc>
 8002e2a:	f855 3b04 	ldr.w	r3, [r5], #4
 8002e2e:	4798      	blx	r3
 8002e30:	3601      	adds	r6, #1
 8002e32:	e7f2      	b.n	8002e1a <__libc_init_array+0x1e>
 8002e34:	08004238 	.word	0x08004238
 8002e38:	08004238 	.word	0x08004238
 8002e3c:	08004238 	.word	0x08004238
 8002e40:	0800423c 	.word	0x0800423c

08002e44 <fmodf>:
 8002e44:	b570      	push	{r4, r5, r6, lr}
 8002e46:	4606      	mov	r6, r0
 8002e48:	460c      	mov	r4, r1
 8002e4a:	f000 f987 	bl	800315c <__ieee754_fmodf>
 8002e4e:	4621      	mov	r1, r4
 8002e50:	4605      	mov	r5, r0
 8002e52:	4630      	mov	r0, r6
 8002e54:	f7fe f89a 	bl	8000f8c <__aeabi_fcmpun>
 8002e58:	b920      	cbnz	r0, 8002e64 <fmodf+0x20>
 8002e5a:	2100      	movs	r1, #0
 8002e5c:	4620      	mov	r0, r4
 8002e5e:	f7fe f863 	bl	8000f28 <__aeabi_fcmpeq>
 8002e62:	b908      	cbnz	r0, 8002e68 <fmodf+0x24>
 8002e64:	4628      	mov	r0, r5
 8002e66:	bd70      	pop	{r4, r5, r6, pc}
 8002e68:	f7ff ffc2 	bl	8002df0 <__errno>
 8002e6c:	2100      	movs	r1, #0
 8002e6e:	2321      	movs	r3, #33	@ 0x21
 8002e70:	6003      	str	r3, [r0, #0]
 8002e72:	4608      	mov	r0, r1
 8002e74:	f7fd ff78 	bl	8000d68 <__aeabi_fdiv>
 8002e78:	4605      	mov	r5, r0
 8002e7a:	4628      	mov	r0, r5
 8002e7c:	bd70      	pop	{r4, r5, r6, pc}
 8002e7e:	bf00      	nop

08002e80 <sinf>:
 8002e80:	4a18      	ldr	r2, [pc, #96]	@ (8002ee4 <sinf+0x64>)
 8002e82:	f020 4300 	bic.w	r3, r0, #2147483648	@ 0x80000000
 8002e86:	4293      	cmp	r3, r2
 8002e88:	d919      	bls.n	8002ebe <sinf+0x3e>
 8002e8a:	b500      	push	{lr}
 8002e8c:	f1b3 4fff 	cmp.w	r3, #2139095040	@ 0x7f800000
 8002e90:	b083      	sub	sp, #12
 8002e92:	d304      	bcc.n	8002e9e <sinf+0x1e>
 8002e94:	4601      	mov	r1, r0
 8002e96:	f7fd fda9 	bl	80009ec <__aeabi_fsub>
 8002e9a:	b003      	add	sp, #12
 8002e9c:	bd00      	pop	{pc}
 8002e9e:	4669      	mov	r1, sp
 8002ea0:	f000 fa10 	bl	80032c4 <__ieee754_rem_pio2f>
 8002ea4:	f000 0303 	and.w	r3, r0, #3
 8002ea8:	2b01      	cmp	r3, #1
 8002eaa:	9800      	ldr	r0, [sp, #0]
 8002eac:	9901      	ldr	r1, [sp, #4]
 8002eae:	d010      	beq.n	8002ed2 <sinf+0x52>
 8002eb0:	2b02      	cmp	r3, #2
 8002eb2:	d008      	beq.n	8002ec6 <sinf+0x46>
 8002eb4:	b983      	cbnz	r3, 8002ed8 <sinf+0x58>
 8002eb6:	2201      	movs	r2, #1
 8002eb8:	f000 f8da 	bl	8003070 <__kernel_sinf>
 8002ebc:	e7ed      	b.n	8002e9a <sinf+0x1a>
 8002ebe:	2100      	movs	r1, #0
 8002ec0:	2200      	movs	r2, #0
 8002ec2:	f000 b8d5 	b.w	8003070 <__kernel_sinf>
 8002ec6:	2201      	movs	r2, #1
 8002ec8:	f000 f8d2 	bl	8003070 <__kernel_sinf>
 8002ecc:	f100 4000 	add.w	r0, r0, #2147483648	@ 0x80000000
 8002ed0:	e7e3      	b.n	8002e9a <sinf+0x1a>
 8002ed2:	f000 f809 	bl	8002ee8 <__kernel_cosf>
 8002ed6:	e7e0      	b.n	8002e9a <sinf+0x1a>
 8002ed8:	f000 f806 	bl	8002ee8 <__kernel_cosf>
 8002edc:	f100 4000 	add.w	r0, r0, #2147483648	@ 0x80000000
 8002ee0:	e7db      	b.n	8002e9a <sinf+0x1a>
 8002ee2:	bf00      	nop
 8002ee4:	3f490fd8 	.word	0x3f490fd8

08002ee8 <__kernel_cosf>:
 8002ee8:	e92d 43f8 	stmdb	sp!, {r3, r4, r5, r6, r7, r8, r9, lr}
 8002eec:	f020 4600 	bic.w	r6, r0, #2147483648	@ 0x80000000
 8002ef0:	f1b6 5f48 	cmp.w	r6, #838860800	@ 0x32000000
 8002ef4:	4605      	mov	r5, r0
 8002ef6:	4688      	mov	r8, r1
 8002ef8:	d249      	bcs.n	8002f8e <__kernel_cosf+0xa6>
 8002efa:	f7fe f85d 	bl	8000fb8 <__aeabi_f2iz>
 8002efe:	2800      	cmp	r0, #0
 8002f00:	f000 809d 	beq.w	800303e <__kernel_cosf+0x156>
 8002f04:	4629      	mov	r1, r5
 8002f06:	4628      	mov	r0, r5
 8002f08:	f7fd fe7a 	bl	8000c00 <__aeabi_fmul>
 8002f0c:	494e      	ldr	r1, [pc, #312]	@ (8003048 <__kernel_cosf+0x160>)
 8002f0e:	4604      	mov	r4, r0
 8002f10:	f7fd fe76 	bl	8000c00 <__aeabi_fmul>
 8002f14:	494d      	ldr	r1, [pc, #308]	@ (800304c <__kernel_cosf+0x164>)
 8002f16:	f7fd fd6b 	bl	80009f0 <__addsf3>
 8002f1a:	4621      	mov	r1, r4
 8002f1c:	f7fd fe70 	bl	8000c00 <__aeabi_fmul>
 8002f20:	494b      	ldr	r1, [pc, #300]	@ (8003050 <__kernel_cosf+0x168>)
 8002f22:	f7fd fd63 	bl	80009ec <__aeabi_fsub>
 8002f26:	4621      	mov	r1, r4
 8002f28:	f7fd fe6a 	bl	8000c00 <__aeabi_fmul>
 8002f2c:	4949      	ldr	r1, [pc, #292]	@ (8003054 <__kernel_cosf+0x16c>)
 8002f2e:	f7fd fd5f 	bl	80009f0 <__addsf3>
 8002f32:	4621      	mov	r1, r4
 8002f34:	f7fd fe64 	bl	8000c00 <__aeabi_fmul>
 8002f38:	4947      	ldr	r1, [pc, #284]	@ (8003058 <__kernel_cosf+0x170>)
 8002f3a:	f7fd fd57 	bl	80009ec <__aeabi_fsub>
 8002f3e:	4621      	mov	r1, r4
 8002f40:	f7fd fe5e 	bl	8000c00 <__aeabi_fmul>
 8002f44:	4945      	ldr	r1, [pc, #276]	@ (800305c <__kernel_cosf+0x174>)
 8002f46:	f7fd fd53 	bl	80009f0 <__addsf3>
 8002f4a:	4621      	mov	r1, r4
 8002f4c:	f7fd fe58 	bl	8000c00 <__aeabi_fmul>
 8002f50:	4607      	mov	r7, r0
 8002f52:	f04f 517c 	mov.w	r1, #1056964608	@ 0x3f000000
 8002f56:	4620      	mov	r0, r4
 8002f58:	f7fd fe52 	bl	8000c00 <__aeabi_fmul>
 8002f5c:	4639      	mov	r1, r7
 8002f5e:	4606      	mov	r6, r0
 8002f60:	4620      	mov	r0, r4
 8002f62:	f7fd fe4d 	bl	8000c00 <__aeabi_fmul>
 8002f66:	4641      	mov	r1, r8
 8002f68:	4604      	mov	r4, r0
 8002f6a:	4628      	mov	r0, r5
 8002f6c:	f7fd fe48 	bl	8000c00 <__aeabi_fmul>
 8002f70:	4601      	mov	r1, r0
 8002f72:	4620      	mov	r0, r4
 8002f74:	f7fd fd3a 	bl	80009ec <__aeabi_fsub>
 8002f78:	4601      	mov	r1, r0
 8002f7a:	4630      	mov	r0, r6
 8002f7c:	f7fd fd36 	bl	80009ec <__aeabi_fsub>
 8002f80:	4601      	mov	r1, r0
 8002f82:	f04f 507e 	mov.w	r0, #1065353216	@ 0x3f800000
 8002f86:	f7fd fd31 	bl	80009ec <__aeabi_fsub>
 8002f8a:	e8bd 83f8 	ldmia.w	sp!, {r3, r4, r5, r6, r7, r8, r9, pc}
 8002f8e:	4601      	mov	r1, r0
 8002f90:	f7fd fe36 	bl	8000c00 <__aeabi_fmul>
 8002f94:	492c      	ldr	r1, [pc, #176]	@ (8003048 <__kernel_cosf+0x160>)
 8002f96:	4604      	mov	r4, r0
 8002f98:	f7fd fe32 	bl	8000c00 <__aeabi_fmul>
 8002f9c:	492b      	ldr	r1, [pc, #172]	@ (800304c <__kernel_cosf+0x164>)
 8002f9e:	f7fd fd27 	bl	80009f0 <__addsf3>
 8002fa2:	4621      	mov	r1, r4
 8002fa4:	f7fd fe2c 	bl	8000c00 <__aeabi_fmul>
 8002fa8:	4929      	ldr	r1, [pc, #164]	@ (8003050 <__kernel_cosf+0x168>)
 8002faa:	f7fd fd1f 	bl	80009ec <__aeabi_fsub>
 8002fae:	4621      	mov	r1, r4
 8002fb0:	f7fd fe26 	bl	8000c00 <__aeabi_fmul>
 8002fb4:	4927      	ldr	r1, [pc, #156]	@ (8003054 <__kernel_cosf+0x16c>)
 8002fb6:	f7fd fd1b 	bl	80009f0 <__addsf3>
 8002fba:	4621      	mov	r1, r4
 8002fbc:	f7fd fe20 	bl	8000c00 <__aeabi_fmul>
 8002fc0:	4925      	ldr	r1, [pc, #148]	@ (8003058 <__kernel_cosf+0x170>)
 8002fc2:	f7fd fd13 	bl	80009ec <__aeabi_fsub>
 8002fc6:	4621      	mov	r1, r4
 8002fc8:	f7fd fe1a 	bl	8000c00 <__aeabi_fmul>
 8002fcc:	4923      	ldr	r1, [pc, #140]	@ (800305c <__kernel_cosf+0x174>)
 8002fce:	f7fd fd0f 	bl	80009f0 <__addsf3>
 8002fd2:	4621      	mov	r1, r4
 8002fd4:	f7fd fe14 	bl	8000c00 <__aeabi_fmul>
 8002fd8:	4b21      	ldr	r3, [pc, #132]	@ (8003060 <__kernel_cosf+0x178>)
 8002fda:	429e      	cmp	r6, r3
 8002fdc:	4607      	mov	r7, r0
 8002fde:	d9b8      	bls.n	8002f52 <__kernel_cosf+0x6a>
 8002fe0:	4b20      	ldr	r3, [pc, #128]	@ (8003064 <__kernel_cosf+0x17c>)
 8002fe2:	429e      	cmp	r6, r3
 8002fe4:	d827      	bhi.n	8003036 <__kernel_cosf+0x14e>
 8002fe6:	f106 467f 	add.w	r6, r6, #4278190080	@ 0xff000000
 8002fea:	f04f 507e 	mov.w	r0, #1065353216	@ 0x3f800000
 8002fee:	4631      	mov	r1, r6
 8002ff0:	f7fd fcfc 	bl	80009ec <__aeabi_fsub>
 8002ff4:	4681      	mov	r9, r0
 8002ff6:	f04f 517c 	mov.w	r1, #1056964608	@ 0x3f000000
 8002ffa:	4620      	mov	r0, r4
 8002ffc:	f7fd fe00 	bl	8000c00 <__aeabi_fmul>
 8003000:	4631      	mov	r1, r6
 8003002:	f7fd fcf3 	bl	80009ec <__aeabi_fsub>
 8003006:	4639      	mov	r1, r7
 8003008:	4606      	mov	r6, r0
 800300a:	4620      	mov	r0, r4
 800300c:	f7fd fdf8 	bl	8000c00 <__aeabi_fmul>
 8003010:	4641      	mov	r1, r8
 8003012:	4604      	mov	r4, r0
 8003014:	4628      	mov	r0, r5
 8003016:	f7fd fdf3 	bl	8000c00 <__aeabi_fmul>
 800301a:	4601      	mov	r1, r0
 800301c:	4620      	mov	r0, r4
 800301e:	f7fd fce5 	bl	80009ec <__aeabi_fsub>
 8003022:	4601      	mov	r1, r0
 8003024:	4630      	mov	r0, r6
 8003026:	f7fd fce1 	bl	80009ec <__aeabi_fsub>
 800302a:	4601      	mov	r1, r0
 800302c:	4648      	mov	r0, r9
 800302e:	f7fd fcdd 	bl	80009ec <__aeabi_fsub>
 8003032:	e8bd 83f8 	ldmia.w	sp!, {r3, r4, r5, r6, r7, r8, r9, pc}
 8003036:	f8df 9030 	ldr.w	r9, [pc, #48]	@ 8003068 <__kernel_cosf+0x180>
 800303a:	4e0c      	ldr	r6, [pc, #48]	@ (800306c <__kernel_cosf+0x184>)
 800303c:	e7db      	b.n	8002ff6 <__kernel_cosf+0x10e>
 800303e:	f04f 507e 	mov.w	r0, #1065353216	@ 0x3f800000
 8003042:	e8bd 83f8 	ldmia.w	sp!, {r3, r4, r5, r6, r7, r8, r9, pc}
 8003046:	bf00      	nop
 8003048:	ad47d74e 	.word	0xad47d74e
 800304c:	310f74f6 	.word	0x310f74f6
 8003050:	3493f27c 	.word	0x3493f27c
 8003054:	37d00d01 	.word	0x37d00d01
 8003058:	3ab60b61 	.word	0x3ab60b61
 800305c:	3d2aaaab 	.word	0x3d2aaaab
 8003060:	3e999999 	.word	0x3e999999
 8003064:	3f480000 	.word	0x3f480000
 8003068:	3f380000 	.word	0x3f380000
 800306c:	3e900000 	.word	0x3e900000

08003070 <__kernel_sinf>:
 8003070:	e92d 43f8 	stmdb	sp!, {r3, r4, r5, r6, r7, r8, r9, lr}
 8003074:	f020 4300 	bic.w	r3, r0, #2147483648	@ 0x80000000
 8003078:	f1b3 5f48 	cmp.w	r3, #838860800	@ 0x32000000
 800307c:	4604      	mov	r4, r0
 800307e:	460e      	mov	r6, r1
 8003080:	4690      	mov	r8, r2
 8003082:	d203      	bcs.n	800308c <__kernel_sinf+0x1c>
 8003084:	f7fd ff98 	bl	8000fb8 <__aeabi_f2iz>
 8003088:	2800      	cmp	r0, #0
 800308a:	d058      	beq.n	800313e <__kernel_sinf+0xce>
 800308c:	4621      	mov	r1, r4
 800308e:	4620      	mov	r0, r4
 8003090:	f7fd fdb6 	bl	8000c00 <__aeabi_fmul>
 8003094:	4605      	mov	r5, r0
 8003096:	4601      	mov	r1, r0
 8003098:	4620      	mov	r0, r4
 800309a:	f7fd fdb1 	bl	8000c00 <__aeabi_fmul>
 800309e:	4929      	ldr	r1, [pc, #164]	@ (8003144 <__kernel_sinf+0xd4>)
 80030a0:	4681      	mov	r9, r0
 80030a2:	4628      	mov	r0, r5
 80030a4:	f7fd fdac 	bl	8000c00 <__aeabi_fmul>
 80030a8:	4927      	ldr	r1, [pc, #156]	@ (8003148 <__kernel_sinf+0xd8>)
 80030aa:	f7fd fc9f 	bl	80009ec <__aeabi_fsub>
 80030ae:	4629      	mov	r1, r5
 80030b0:	f7fd fda6 	bl	8000c00 <__aeabi_fmul>
 80030b4:	4925      	ldr	r1, [pc, #148]	@ (800314c <__kernel_sinf+0xdc>)
 80030b6:	f7fd fc9b 	bl	80009f0 <__addsf3>
 80030ba:	4629      	mov	r1, r5
 80030bc:	f7fd fda0 	bl	8000c00 <__aeabi_fmul>
 80030c0:	4923      	ldr	r1, [pc, #140]	@ (8003150 <__kernel_sinf+0xe0>)
 80030c2:	f7fd fc93 	bl	80009ec <__aeabi_fsub>
 80030c6:	4629      	mov	r1, r5
 80030c8:	f7fd fd9a 	bl	8000c00 <__aeabi_fmul>
 80030cc:	4921      	ldr	r1, [pc, #132]	@ (8003154 <__kernel_sinf+0xe4>)
 80030ce:	f7fd fc8f 	bl	80009f0 <__addsf3>
 80030d2:	4607      	mov	r7, r0
 80030d4:	f1b8 0f00 	cmp.w	r8, #0
 80030d8:	d022      	beq.n	8003120 <__kernel_sinf+0xb0>
 80030da:	f04f 517c 	mov.w	r1, #1056964608	@ 0x3f000000
 80030de:	4630      	mov	r0, r6
 80030e0:	f7fd fd8e 	bl	8000c00 <__aeabi_fmul>
 80030e4:	4639      	mov	r1, r7
 80030e6:	4680      	mov	r8, r0
 80030e8:	4648      	mov	r0, r9
 80030ea:	f7fd fd89 	bl	8000c00 <__aeabi_fmul>
 80030ee:	4601      	mov	r1, r0
 80030f0:	4640      	mov	r0, r8
 80030f2:	f7fd fc7b 	bl	80009ec <__aeabi_fsub>
 80030f6:	4629      	mov	r1, r5
 80030f8:	f7fd fd82 	bl	8000c00 <__aeabi_fmul>
 80030fc:	4631      	mov	r1, r6
 80030fe:	f7fd fc75 	bl	80009ec <__aeabi_fsub>
 8003102:	4915      	ldr	r1, [pc, #84]	@ (8003158 <__kernel_sinf+0xe8>)
 8003104:	4605      	mov	r5, r0
 8003106:	4648      	mov	r0, r9
 8003108:	f7fd fd7a 	bl	8000c00 <__aeabi_fmul>
 800310c:	4601      	mov	r1, r0
 800310e:	4628      	mov	r0, r5
 8003110:	f7fd fc6e 	bl	80009f0 <__addsf3>
 8003114:	4601      	mov	r1, r0
 8003116:	4620      	mov	r0, r4
 8003118:	f7fd fc68 	bl	80009ec <__aeabi_fsub>
 800311c:	e8bd 83f8 	ldmia.w	sp!, {r3, r4, r5, r6, r7, r8, r9, pc}
 8003120:	4601      	mov	r1, r0
 8003122:	4628      	mov	r0, r5
 8003124:	f7fd fd6c 	bl	8000c00 <__aeabi_fmul>
 8003128:	490b      	ldr	r1, [pc, #44]	@ (8003158 <__kernel_sinf+0xe8>)
 800312a:	f7fd fc5f 	bl	80009ec <__aeabi_fsub>
 800312e:	4649      	mov	r1, r9
 8003130:	f7fd fd66 	bl	8000c00 <__aeabi_fmul>
 8003134:	4621      	mov	r1, r4
 8003136:	f7fd fc5b 	bl	80009f0 <__addsf3>
 800313a:	e8bd 83f8 	ldmia.w	sp!, {r3, r4, r5, r6, r7, r8, r9, pc}
 800313e:	4620      	mov	r0, r4
 8003140:	e8bd 83f8 	ldmia.w	sp!, {r3, r4, r5, r6, r7, r8, r9, pc}
 8003144:	2f2ec9d3 	.word	0x2f2ec9d3
 8003148:	32d72f34 	.word	0x32d72f34
 800314c:	3638ef1b 	.word	0x3638ef1b
 8003150:	39500d01 	.word	0x39500d01
 8003154:	3c088889 	.word	0x3c088889
 8003158:	3e2aaaab 	.word	0x3e2aaaab

0800315c <__ieee754_fmodf>:
 800315c:	f021 4300 	bic.w	r3, r1, #2147483648	@ 0x80000000
 8003160:	1e5a      	subs	r2, r3, #1
 8003162:	f1b2 4fff 	cmp.w	r2, #2139095040	@ 0x7f800000
 8003166:	b570      	push	{r4, r5, r6, lr}
 8003168:	d238      	bcs.n	80031dc <__ieee754_fmodf+0x80>
 800316a:	f020 4400 	bic.w	r4, r0, #2147483648	@ 0x80000000
 800316e:	f1b4 4fff 	cmp.w	r4, #2139095040	@ 0x7f800000
 8003172:	4602      	mov	r2, r0
 8003174:	d232      	bcs.n	80031dc <__ieee754_fmodf+0x80>
 8003176:	429c      	cmp	r4, r3
 8003178:	db35      	blt.n	80031e6 <__ieee754_fmodf+0x8a>
 800317a:	f000 4000 	and.w	r0, r0, #2147483648	@ 0x80000000
 800317e:	d056      	beq.n	800322e <__ieee754_fmodf+0xd2>
 8003180:	f012 4fff 	tst.w	r2, #2139095040	@ 0x7f800000
 8003184:	468c      	mov	ip, r1
 8003186:	f001 46ff 	and.w	r6, r1, #2139095040	@ 0x7f800000
 800318a:	d139      	bne.n	8003200 <__ieee754_fmodf+0xa4>
 800318c:	0221      	lsls	r1, r4, #8
 800318e:	f06f 057d 	mvn.w	r5, #125	@ 0x7d
 8003192:	0049      	lsls	r1, r1, #1
 8003194:	2900      	cmp	r1, #0
 8003196:	f105 35ff 	add.w	r5, r5, #4294967295	@ 0xffffffff
 800319a:	dcfa      	bgt.n	8003192 <__ieee754_fmodf+0x36>
 800319c:	2e00      	cmp	r6, #0
 800319e:	d162      	bne.n	8003266 <__ieee754_fmodf+0x10a>
 80031a0:	0219      	lsls	r1, r3, #8
 80031a2:	f06f 0e7d 	mvn.w	lr, #125	@ 0x7d
 80031a6:	0049      	lsls	r1, r1, #1
 80031a8:	f10e 3eff 	add.w	lr, lr, #4294967295	@ 0xffffffff
 80031ac:	d5fb      	bpl.n	80031a6 <__ieee754_fmodf+0x4a>
 80031ae:	f115 0f7e 	cmn.w	r5, #126	@ 0x7e
 80031b2:	da71      	bge.n	8003298 <__ieee754_fmodf+0x13c>
 80031b4:	f06f 017d 	mvn.w	r1, #125	@ 0x7d
 80031b8:	1b4a      	subs	r2, r1, r5
 80031ba:	fa04 f202 	lsl.w	r2, r4, r2
 80031be:	eba5 050e 	sub.w	r5, r5, lr
 80031c2:	eba1 040e 	sub.w	r4, r1, lr
 80031c6:	40a3      	lsls	r3, r4
 80031c8:	1e69      	subs	r1, r5, #1
 80031ca:	b995      	cbnz	r5, 80031f2 <__ieee754_fmodf+0x96>
 80031cc:	1ad3      	subs	r3, r2, r3
 80031ce:	2b00      	cmp	r3, #0
 80031d0:	db6f      	blt.n	80032b2 <__ieee754_fmodf+0x156>
 80031d2:	d02c      	beq.n	800322e <__ieee754_fmodf+0xd2>
 80031d4:	f5b3 0f00 	cmp.w	r3, #8388608	@ 0x800000
 80031d8:	db33      	blt.n	8003242 <__ieee754_fmodf+0xe6>
 80031da:	e03f      	b.n	800325c <__ieee754_fmodf+0x100>
 80031dc:	f7fd fd10 	bl	8000c00 <__aeabi_fmul>
 80031e0:	4601      	mov	r1, r0
 80031e2:	f7fd fdc1 	bl	8000d68 <__aeabi_fdiv>
 80031e6:	bd70      	pop	{r4, r5, r6, pc}
 80031e8:	d021      	beq.n	800322e <__ieee754_fmodf+0xd2>
 80031ea:	ea4f 024c 	mov.w	r2, ip, lsl #1
 80031ee:	3901      	subs	r1, #1
 80031f0:	d322      	bcc.n	8003238 <__ieee754_fmodf+0xdc>
 80031f2:	eba2 0c03 	sub.w	ip, r2, r3
 80031f6:	f1bc 0f00 	cmp.w	ip, #0
 80031fa:	daf5      	bge.n	80031e8 <__ieee754_fmodf+0x8c>
 80031fc:	0052      	lsls	r2, r2, #1
 80031fe:	e7f6      	b.n	80031ee <__ieee754_fmodf+0x92>
 8003200:	15e5      	asrs	r5, r4, #23
 8003202:	b376      	cbz	r6, 8003262 <__ieee754_fmodf+0x106>
 8003204:	ea4f 5ee3 	mov.w	lr, r3, asr #23
 8003208:	eba5 050e 	sub.w	r5, r5, lr
 800320c:	f3c1 0316 	ubfx	r3, r1, #0, #23
 8003210:	f3c2 0216 	ubfx	r2, r2, #0, #23
 8003214:	f1ae 0e7f 	sub.w	lr, lr, #127	@ 0x7f
 8003218:	f442 0200 	orr.w	r2, r2, #8388608	@ 0x800000
 800321c:	f443 0300 	orr.w	r3, r3, #8388608	@ 0x800000
 8003220:	1e69      	subs	r1, r5, #1
 8003222:	2d00      	cmp	r5, #0
 8003224:	d1e5      	bne.n	80031f2 <__ieee754_fmodf+0x96>
 8003226:	1ad3      	subs	r3, r2, r3
 8003228:	2b00      	cmp	r3, #0
 800322a:	db2c      	blt.n	8003286 <__ieee754_fmodf+0x12a>
 800322c:	d109      	bne.n	8003242 <__ieee754_fmodf+0xe6>
 800322e:	4b24      	ldr	r3, [pc, #144]	@ (80032c0 <__ieee754_fmodf+0x164>)
 8003230:	0fc0      	lsrs	r0, r0, #31
 8003232:	f853 0020 	ldr.w	r0, [r3, r0, lsl #2]
 8003236:	bd70      	pop	{r4, r5, r6, pc}
 8003238:	1ad3      	subs	r3, r2, r3
 800323a:	bf48      	it	mi
 800323c:	4613      	movmi	r3, r2
 800323e:	b91b      	cbnz	r3, 8003248 <__ieee754_fmodf+0xec>
 8003240:	e7f5      	b.n	800322e <__ieee754_fmodf+0xd2>
 8003242:	005b      	lsls	r3, r3, #1
 8003244:	f10e 3eff 	add.w	lr, lr, #4294967295	@ 0xffffffff
 8003248:	f5b3 0f00 	cmp.w	r3, #8388608	@ 0x800000
 800324c:	dbf9      	blt.n	8003242 <__ieee754_fmodf+0xe6>
 800324e:	f11e 0f7e 	cmn.w	lr, #126	@ 0x7e
 8003252:	da19      	bge.n	8003288 <__ieee754_fmodf+0x12c>
 8003254:	f06f 047d 	mvn.w	r4, #125	@ 0x7d
 8003258:	eba4 040e 	sub.w	r4, r4, lr
 800325c:	4123      	asrs	r3, r4
 800325e:	4318      	orrs	r0, r3
 8003260:	bd70      	pop	{r4, r5, r6, pc}
 8003262:	3d7f      	subs	r5, #127	@ 0x7f
 8003264:	e79c      	b.n	80031a0 <__ieee754_fmodf+0x44>
 8003266:	15db      	asrs	r3, r3, #23
 8003268:	f1a3 0e7f 	sub.w	lr, r3, #127	@ 0x7f
 800326c:	f06f 027d 	mvn.w	r2, #125	@ 0x7d
 8003270:	f3cc 0c16 	ubfx	ip, ip, #0, #23
 8003274:	1b52      	subs	r2, r2, r5
 8003276:	eba5 010e 	sub.w	r1, r5, lr
 800327a:	f44c 0300 	orr.w	r3, ip, #8388608	@ 0x800000
 800327e:	fa04 f202 	lsl.w	r2, r4, r2
 8003282:	3901      	subs	r1, #1
 8003284:	e7b5      	b.n	80031f2 <__ieee754_fmodf+0x96>
 8003286:	4613      	mov	r3, r2
 8003288:	f5a3 0300 	sub.w	r3, r3, #8388608	@ 0x800000
 800328c:	f10e 0e7f 	add.w	lr, lr, #127	@ 0x7f
 8003290:	4303      	orrs	r3, r0
 8003292:	ea43 50ce 	orr.w	r0, r3, lr, lsl #23
 8003296:	bd70      	pop	{r4, r5, r6, pc}
 8003298:	f06f 047d 	mvn.w	r4, #125	@ 0x7d
 800329c:	f3c2 0216 	ubfx	r2, r2, #0, #23
 80032a0:	eba5 010e 	sub.w	r1, r5, lr
 80032a4:	eba4 040e 	sub.w	r4, r4, lr
 80032a8:	f442 0200 	orr.w	r2, r2, #8388608	@ 0x800000
 80032ac:	3901      	subs	r1, #1
 80032ae:	40a3      	lsls	r3, r4
 80032b0:	e79f      	b.n	80031f2 <__ieee754_fmodf+0x96>
 80032b2:	2a00      	cmp	r2, #0
 80032b4:	d0bb      	beq.n	800322e <__ieee754_fmodf+0xd2>
 80032b6:	f5b2 0f00 	cmp.w	r2, #8388608	@ 0x800000
 80032ba:	4613      	mov	r3, r2
 80032bc:	dbc1      	blt.n	8003242 <__ieee754_fmodf+0xe6>
 80032be:	e7cd      	b.n	800325c <__ieee754_fmodf+0x100>
 80032c0:	08003e60 	.word	0x08003e60

080032c4 <__ieee754_rem_pio2f>:
 80032c4:	e92d 4ff0 	stmdb	sp!, {r4, r5, r6, r7, r8, r9, sl, fp, lr}
 80032c8:	4aa8      	ldr	r2, [pc, #672]	@ (800356c <__ieee754_rem_pio2f+0x2a8>)
 80032ca:	f020 4500 	bic.w	r5, r0, #2147483648	@ 0x80000000
 80032ce:	4295      	cmp	r5, r2
 80032d0:	b089      	sub	sp, #36	@ 0x24
 80032d2:	460c      	mov	r4, r1
 80032d4:	d96f      	bls.n	80033b6 <__ieee754_rem_pio2f+0xf2>
 80032d6:	4aa6      	ldr	r2, [pc, #664]	@ (8003570 <__ieee754_rem_pio2f+0x2ac>)
 80032d8:	4295      	cmp	r5, r2
 80032da:	4606      	mov	r6, r0
 80032dc:	d81f      	bhi.n	800331e <__ieee754_rem_pio2f+0x5a>
 80032de:	f020 4500 	bic.w	r5, r0, #2147483648	@ 0x80000000
 80032e2:	2800      	cmp	r0, #0
 80032e4:	49a3      	ldr	r1, [pc, #652]	@ (8003574 <__ieee754_rem_pio2f+0x2b0>)
 80032e6:	f025 050f 	bic.w	r5, r5, #15
 80032ea:	f340 8119 	ble.w	8003520 <__ieee754_rem_pio2f+0x25c>
 80032ee:	f7fd fb7d 	bl	80009ec <__aeabi_fsub>
 80032f2:	4ba1      	ldr	r3, [pc, #644]	@ (8003578 <__ieee754_rem_pio2f+0x2b4>)
 80032f4:	429d      	cmp	r5, r3
 80032f6:	4606      	mov	r6, r0
 80032f8:	d06b      	beq.n	80033d2 <__ieee754_rem_pio2f+0x10e>
 80032fa:	49a0      	ldr	r1, [pc, #640]	@ (800357c <__ieee754_rem_pio2f+0x2b8>)
 80032fc:	f7fd fb76 	bl	80009ec <__aeabi_fsub>
 8003300:	4601      	mov	r1, r0
 8003302:	4605      	mov	r5, r0
 8003304:	4630      	mov	r0, r6
 8003306:	f7fd fb71 	bl	80009ec <__aeabi_fsub>
 800330a:	499c      	ldr	r1, [pc, #624]	@ (800357c <__ieee754_rem_pio2f+0x2b8>)
 800330c:	f7fd fb6e 	bl	80009ec <__aeabi_fsub>
 8003310:	6025      	str	r5, [r4, #0]
 8003312:	6060      	str	r0, [r4, #4]
 8003314:	2701      	movs	r7, #1
 8003316:	4638      	mov	r0, r7
 8003318:	b009      	add	sp, #36	@ 0x24
 800331a:	e8bd 8ff0 	ldmia.w	sp!, {r4, r5, r6, r7, r8, r9, sl, fp, pc}
 800331e:	4a98      	ldr	r2, [pc, #608]	@ (8003580 <__ieee754_rem_pio2f+0x2bc>)
 8003320:	4295      	cmp	r5, r2
 8003322:	d966      	bls.n	80033f2 <__ieee754_rem_pio2f+0x12e>
 8003324:	f1b5 4fff 	cmp.w	r5, #2139095040	@ 0x7f800000
 8003328:	d24d      	bcs.n	80033c6 <__ieee754_rem_pio2f+0x102>
 800332a:	15ef      	asrs	r7, r5, #23
 800332c:	3f86      	subs	r7, #134	@ 0x86
 800332e:	eba5 55c7 	sub.w	r5, r5, r7, lsl #23
 8003332:	4628      	mov	r0, r5
 8003334:	f7fd fe40 	bl	8000fb8 <__aeabi_f2iz>
 8003338:	f7fd fc0e 	bl	8000b58 <__aeabi_i2f>
 800333c:	4601      	mov	r1, r0
 800333e:	4628      	mov	r0, r5
 8003340:	9105      	str	r1, [sp, #20]
 8003342:	f7fd fb53 	bl	80009ec <__aeabi_fsub>
 8003346:	f04f 4187 	mov.w	r1, #1132462080	@ 0x43800000
 800334a:	f7fd fc59 	bl	8000c00 <__aeabi_fmul>
 800334e:	4680      	mov	r8, r0
 8003350:	f7fd fe32 	bl	8000fb8 <__aeabi_f2iz>
 8003354:	f7fd fc00 	bl	8000b58 <__aeabi_i2f>
 8003358:	4605      	mov	r5, r0
 800335a:	4629      	mov	r1, r5
 800335c:	4640      	mov	r0, r8
 800335e:	9506      	str	r5, [sp, #24]
 8003360:	f7fd fb44 	bl	80009ec <__aeabi_fsub>
 8003364:	f04f 4187 	mov.w	r1, #1132462080	@ 0x43800000
 8003368:	f7fd fc4a 	bl	8000c00 <__aeabi_fmul>
 800336c:	2100      	movs	r1, #0
 800336e:	9007      	str	r0, [sp, #28]
 8003370:	f7fd fdda 	bl	8000f28 <__aeabi_fcmpeq>
 8003374:	2800      	cmp	r0, #0
 8003376:	f000 80b1 	beq.w	80034dc <__ieee754_rem_pio2f+0x218>
 800337a:	2100      	movs	r1, #0
 800337c:	4628      	mov	r0, r5
 800337e:	f7fd fdd3 	bl	8000f28 <__aeabi_fcmpeq>
 8003382:	2800      	cmp	r0, #0
 8003384:	bf14      	ite	ne
 8003386:	2301      	movne	r3, #1
 8003388:	2302      	moveq	r3, #2
 800338a:	4a7e      	ldr	r2, [pc, #504]	@ (8003584 <__ieee754_rem_pio2f+0x2c0>)
 800338c:	9201      	str	r2, [sp, #4]
 800338e:	2202      	movs	r2, #2
 8003390:	9200      	str	r2, [sp, #0]
 8003392:	4621      	mov	r1, r4
 8003394:	463a      	mov	r2, r7
 8003396:	a805      	add	r0, sp, #20
 8003398:	f000 f906 	bl	80035a8 <__kernel_rem_pio2f>
 800339c:	2e00      	cmp	r6, #0
 800339e:	4607      	mov	r7, r0
 80033a0:	dab9      	bge.n	8003316 <__ieee754_rem_pio2f+0x52>
 80033a2:	e9d4 2300 	ldrd	r2, r3, [r4]
 80033a6:	f102 4200 	add.w	r2, r2, #2147483648	@ 0x80000000
 80033aa:	f103 4300 	add.w	r3, r3, #2147483648	@ 0x80000000
 80033ae:	6022      	str	r2, [r4, #0]
 80033b0:	6063      	str	r3, [r4, #4]
 80033b2:	4247      	negs	r7, r0
 80033b4:	e7af      	b.n	8003316 <__ieee754_rem_pio2f+0x52>
 80033b6:	2200      	movs	r2, #0
 80033b8:	6020      	str	r0, [r4, #0]
 80033ba:	604a      	str	r2, [r1, #4]
 80033bc:	2700      	movs	r7, #0
 80033be:	4638      	mov	r0, r7
 80033c0:	b009      	add	sp, #36	@ 0x24
 80033c2:	e8bd 8ff0 	ldmia.w	sp!, {r4, r5, r6, r7, r8, r9, sl, fp, pc}
 80033c6:	4601      	mov	r1, r0
 80033c8:	f7fd fb10 	bl	80009ec <__aeabi_fsub>
 80033cc:	6060      	str	r0, [r4, #4]
 80033ce:	6020      	str	r0, [r4, #0]
 80033d0:	e7f4      	b.n	80033bc <__ieee754_rem_pio2f+0xf8>
 80033d2:	496d      	ldr	r1, [pc, #436]	@ (8003588 <__ieee754_rem_pio2f+0x2c4>)
 80033d4:	f7fd fb0a 	bl	80009ec <__aeabi_fsub>
 80033d8:	496c      	ldr	r1, [pc, #432]	@ (800358c <__ieee754_rem_pio2f+0x2c8>)
 80033da:	4606      	mov	r6, r0
 80033dc:	f7fd fb06 	bl	80009ec <__aeabi_fsub>
 80033e0:	4601      	mov	r1, r0
 80033e2:	4605      	mov	r5, r0
 80033e4:	4630      	mov	r0, r6
 80033e6:	f7fd fb01 	bl	80009ec <__aeabi_fsub>
 80033ea:	4968      	ldr	r1, [pc, #416]	@ (800358c <__ieee754_rem_pio2f+0x2c8>)
 80033ec:	f7fd fafe 	bl	80009ec <__aeabi_fsub>
 80033f0:	e78e      	b.n	8003310 <__ieee754_rem_pio2f+0x4c>
 80033f2:	f000 f8d5 	bl	80035a0 <fabsf>
 80033f6:	4966      	ldr	r1, [pc, #408]	@ (8003590 <__ieee754_rem_pio2f+0x2cc>)
 80033f8:	4680      	mov	r8, r0
 80033fa:	f7fd fc01 	bl	8000c00 <__aeabi_fmul>
 80033fe:	f04f 517c 	mov.w	r1, #1056964608	@ 0x3f000000
 8003402:	f7fd faf5 	bl	80009f0 <__addsf3>
 8003406:	f7fd fdd7 	bl	8000fb8 <__aeabi_f2iz>
 800340a:	4607      	mov	r7, r0
 800340c:	f7fd fba4 	bl	8000b58 <__aeabi_i2f>
 8003410:	4958      	ldr	r1, [pc, #352]	@ (8003574 <__ieee754_rem_pio2f+0x2b0>)
 8003412:	4683      	mov	fp, r0
 8003414:	f7fd fbf4 	bl	8000c00 <__aeabi_fmul>
 8003418:	4601      	mov	r1, r0
 800341a:	4640      	mov	r0, r8
 800341c:	f7fd fae6 	bl	80009ec <__aeabi_fsub>
 8003420:	4956      	ldr	r1, [pc, #344]	@ (800357c <__ieee754_rem_pio2f+0x2b8>)
 8003422:	4682      	mov	sl, r0
 8003424:	4658      	mov	r0, fp
 8003426:	f7fd fbeb 	bl	8000c00 <__aeabi_fmul>
 800342a:	4601      	mov	r1, r0
 800342c:	4681      	mov	r9, r0
 800342e:	4650      	mov	r0, sl
 8003430:	f7fd fadc 	bl	80009ec <__aeabi_fsub>
 8003434:	2f1f      	cmp	r7, #31
 8003436:	4680      	mov	r8, r0
 8003438:	dc1f      	bgt.n	800347a <__ieee754_rem_pio2f+0x1b6>
 800343a:	4b56      	ldr	r3, [pc, #344]	@ (8003594 <__ieee754_rem_pio2f+0x2d0>)
 800343c:	1e7a      	subs	r2, r7, #1
 800343e:	f853 2022 	ldr.w	r2, [r3, r2, lsl #2]
 8003442:	f026 4300 	bic.w	r3, r6, #2147483648	@ 0x80000000
 8003446:	f023 03ff 	bic.w	r3, r3, #255	@ 0xff
 800344a:	4293      	cmp	r3, r2
 800344c:	d015      	beq.n	800347a <__ieee754_rem_pio2f+0x1b6>
 800344e:	f8c4 8000 	str.w	r8, [r4]
 8003452:	4641      	mov	r1, r8
 8003454:	4650      	mov	r0, sl
 8003456:	f7fd fac9 	bl	80009ec <__aeabi_fsub>
 800345a:	4649      	mov	r1, r9
 800345c:	f7fd fac6 	bl	80009ec <__aeabi_fsub>
 8003460:	2e00      	cmp	r6, #0
 8003462:	6060      	str	r0, [r4, #4]
 8003464:	f6bf af57 	bge.w	8003316 <__ieee754_rem_pio2f+0x52>
 8003468:	f108 4800 	add.w	r8, r8, #2147483648	@ 0x80000000
 800346c:	f100 4000 	add.w	r0, r0, #2147483648	@ 0x80000000
 8003470:	f8c4 8000 	str.w	r8, [r4]
 8003474:	6060      	str	r0, [r4, #4]
 8003476:	427f      	negs	r7, r7
 8003478:	e74d      	b.n	8003316 <__ieee754_rem_pio2f+0x52>
 800347a:	f3c8 53c7 	ubfx	r3, r8, #23, #8
 800347e:	ebc3 53d5 	rsb	r3, r3, r5, lsr #23
 8003482:	2b08      	cmp	r3, #8
 8003484:	ea4f 52e5 	mov.w	r2, r5, asr #23
 8003488:	dde1      	ble.n	800344e <__ieee754_rem_pio2f+0x18a>
 800348a:	493f      	ldr	r1, [pc, #252]	@ (8003588 <__ieee754_rem_pio2f+0x2c4>)
 800348c:	9203      	str	r2, [sp, #12]
 800348e:	4658      	mov	r0, fp
 8003490:	f7fd fbb6 	bl	8000c00 <__aeabi_fmul>
 8003494:	4680      	mov	r8, r0
 8003496:	4601      	mov	r1, r0
 8003498:	4650      	mov	r0, sl
 800349a:	f7fd faa7 	bl	80009ec <__aeabi_fsub>
 800349e:	4605      	mov	r5, r0
 80034a0:	4629      	mov	r1, r5
 80034a2:	4650      	mov	r0, sl
 80034a4:	f7fd faa2 	bl	80009ec <__aeabi_fsub>
 80034a8:	4641      	mov	r1, r8
 80034aa:	f7fd fa9f 	bl	80009ec <__aeabi_fsub>
 80034ae:	4937      	ldr	r1, [pc, #220]	@ (800358c <__ieee754_rem_pio2f+0x2c8>)
 80034b0:	4680      	mov	r8, r0
 80034b2:	4658      	mov	r0, fp
 80034b4:	f7fd fba4 	bl	8000c00 <__aeabi_fmul>
 80034b8:	4641      	mov	r1, r8
 80034ba:	f7fd fa97 	bl	80009ec <__aeabi_fsub>
 80034be:	4601      	mov	r1, r0
 80034c0:	4681      	mov	r9, r0
 80034c2:	4628      	mov	r0, r5
 80034c4:	f7fd fa92 	bl	80009ec <__aeabi_fsub>
 80034c8:	9a03      	ldr	r2, [sp, #12]
 80034ca:	f3c0 53c7 	ubfx	r3, r0, #23, #8
 80034ce:	1ad2      	subs	r2, r2, r3
 80034d0:	2a19      	cmp	r2, #25
 80034d2:	4680      	mov	r8, r0
 80034d4:	dc04      	bgt.n	80034e0 <__ieee754_rem_pio2f+0x21c>
 80034d6:	6020      	str	r0, [r4, #0]
 80034d8:	46aa      	mov	sl, r5
 80034da:	e7ba      	b.n	8003452 <__ieee754_rem_pio2f+0x18e>
 80034dc:	2303      	movs	r3, #3
 80034de:	e754      	b.n	800338a <__ieee754_rem_pio2f+0xc6>
 80034e0:	492d      	ldr	r1, [pc, #180]	@ (8003598 <__ieee754_rem_pio2f+0x2d4>)
 80034e2:	4658      	mov	r0, fp
 80034e4:	f7fd fb8c 	bl	8000c00 <__aeabi_fmul>
 80034e8:	4680      	mov	r8, r0
 80034ea:	4601      	mov	r1, r0
 80034ec:	4628      	mov	r0, r5
 80034ee:	f7fd fa7d 	bl	80009ec <__aeabi_fsub>
 80034f2:	4682      	mov	sl, r0
 80034f4:	4651      	mov	r1, sl
 80034f6:	4628      	mov	r0, r5
 80034f8:	f7fd fa78 	bl	80009ec <__aeabi_fsub>
 80034fc:	4641      	mov	r1, r8
 80034fe:	f7fd fa75 	bl	80009ec <__aeabi_fsub>
 8003502:	4926      	ldr	r1, [pc, #152]	@ (800359c <__ieee754_rem_pio2f+0x2d8>)
 8003504:	4605      	mov	r5, r0
 8003506:	4658      	mov	r0, fp
 8003508:	f7fd fb7a 	bl	8000c00 <__aeabi_fmul>
 800350c:	4629      	mov	r1, r5
 800350e:	f7fd fa6d 	bl	80009ec <__aeabi_fsub>
 8003512:	4601      	mov	r1, r0
 8003514:	4681      	mov	r9, r0
 8003516:	4650      	mov	r0, sl
 8003518:	f7fd fa68 	bl	80009ec <__aeabi_fsub>
 800351c:	4680      	mov	r8, r0
 800351e:	e796      	b.n	800344e <__ieee754_rem_pio2f+0x18a>
 8003520:	f7fd fa66 	bl	80009f0 <__addsf3>
 8003524:	4b14      	ldr	r3, [pc, #80]	@ (8003578 <__ieee754_rem_pio2f+0x2b4>)
 8003526:	429d      	cmp	r5, r3
 8003528:	4606      	mov	r6, r0
 800352a:	d00f      	beq.n	800354c <__ieee754_rem_pio2f+0x288>
 800352c:	4913      	ldr	r1, [pc, #76]	@ (800357c <__ieee754_rem_pio2f+0x2b8>)
 800352e:	f7fd fa5f 	bl	80009f0 <__addsf3>
 8003532:	4601      	mov	r1, r0
 8003534:	4605      	mov	r5, r0
 8003536:	4630      	mov	r0, r6
 8003538:	f7fd fa58 	bl	80009ec <__aeabi_fsub>
 800353c:	490f      	ldr	r1, [pc, #60]	@ (800357c <__ieee754_rem_pio2f+0x2b8>)
 800353e:	f7fd fa57 	bl	80009f0 <__addsf3>
 8003542:	6025      	str	r5, [r4, #0]
 8003544:	6060      	str	r0, [r4, #4]
 8003546:	f04f 37ff 	mov.w	r7, #4294967295	@ 0xffffffff
 800354a:	e6e4      	b.n	8003316 <__ieee754_rem_pio2f+0x52>
 800354c:	490e      	ldr	r1, [pc, #56]	@ (8003588 <__ieee754_rem_pio2f+0x2c4>)
 800354e:	f7fd fa4f 	bl	80009f0 <__addsf3>
 8003552:	490e      	ldr	r1, [pc, #56]	@ (800358c <__ieee754_rem_pio2f+0x2c8>)
 8003554:	4606      	mov	r6, r0
 8003556:	f7fd fa4b 	bl	80009f0 <__addsf3>
 800355a:	4601      	mov	r1, r0
 800355c:	4605      	mov	r5, r0
 800355e:	4630      	mov	r0, r6
 8003560:	f7fd fa44 	bl	80009ec <__aeabi_fsub>
 8003564:	4909      	ldr	r1, [pc, #36]	@ (800358c <__ieee754_rem_pio2f+0x2c8>)
 8003566:	f7fd fa43 	bl	80009f0 <__addsf3>
 800356a:	e7ea      	b.n	8003542 <__ieee754_rem_pio2f+0x27e>
 800356c:	3f490fd8 	.word	0x3f490fd8
 8003570:	4016cbe3 	.word	0x4016cbe3
 8003574:	3fc90f80 	.word	0x3fc90f80
 8003578:	3fc90fd0 	.word	0x3fc90fd0
 800357c:	37354443 	.word	0x37354443
 8003580:	43490f80 	.word	0x43490f80
 8003584:	08003ee8 	.word	0x08003ee8
 8003588:	37354400 	.word	0x37354400
 800358c:	2e85a308 	.word	0x2e85a308
 8003590:	3f22f984 	.word	0x3f22f984
 8003594:	08003e68 	.word	0x08003e68
 8003598:	2e85a300 	.word	0x2e85a300
 800359c:	248d3132 	.word	0x248d3132

080035a0 <fabsf>:
 80035a0:	f020 4000 	bic.w	r0, r0, #2147483648	@ 0x80000000
 80035a4:	4770      	bx	lr
 80035a6:	bf00      	nop

080035a8 <__kernel_rem_pio2f>:
 80035a8:	e92d 4ff0 	stmdb	sp!, {r4, r5, r6, r7, r8, r9, sl, fp, lr}
 80035ac:	b0dd      	sub	sp, #372	@ 0x174
 80035ae:	469c      	mov	ip, r3
 80035b0:	9109      	str	r1, [sp, #36]	@ 0x24
 80035b2:	4bb1      	ldr	r3, [pc, #708]	@ (8003878 <__kernel_rem_pio2f+0x2d0>)
 80035b4:	9966      	ldr	r1, [sp, #408]	@ 0x198
 80035b6:	4680      	mov	r8, r0
 80035b8:	f853 a021 	ldr.w	sl, [r3, r1, lsl #2]
 80035bc:	1d10      	adds	r0, r2, #4
 80035be:	f10c 33ff 	add.w	r3, ip, #4294967295	@ 0xffffffff
 80035c2:	9301      	str	r3, [sp, #4]
 80035c4:	f2c0 82c1 	blt.w	8003b4a <__kernel_rem_pio2f+0x5a2>
 80035c8:	1ed3      	subs	r3, r2, #3
 80035ca:	bf48      	it	mi
 80035cc:	1d13      	addmi	r3, r2, #4
 80035ce:	10db      	asrs	r3, r3, #3
 80035d0:	9306      	str	r3, [sp, #24]
 80035d2:	3301      	adds	r3, #1
 80035d4:	00db      	lsls	r3, r3, #3
 80035d6:	930a      	str	r3, [sp, #40]	@ 0x28
 80035d8:	9b0a      	ldr	r3, [sp, #40]	@ 0x28
 80035da:	9906      	ldr	r1, [sp, #24]
 80035dc:	1ad3      	subs	r3, r2, r3
 80035de:	9304      	str	r3, [sp, #16]
 80035e0:	f10c 33ff 	add.w	r3, ip, #4294967295	@ 0xffffffff
 80035e4:	eb1a 0703 	adds.w	r7, sl, r3
 80035e8:	eba1 0503 	sub.w	r5, r1, r3
 80035ec:	d420      	bmi.n	8003630 <__kernel_rem_pio2f+0x88>
 80035ee:	3701      	adds	r7, #1
 80035f0:	442f      	add	r7, r5
 80035f2:	ae20      	add	r6, sp, #128	@ 0x80
 80035f4:	463b      	mov	r3, r7
 80035f6:	f8dd 919c 	ldr.w	r9, [sp, #412]	@ 0x19c
 80035fa:	f8cd c000 	str.w	ip, [sp]
 80035fe:	4637      	mov	r7, r6
 8003600:	2400      	movs	r4, #0
 8003602:	4693      	mov	fp, r2
 8003604:	461e      	mov	r6, r3
 8003606:	e008      	b.n	800361a <__kernel_rem_pio2f+0x72>
 8003608:	f859 0025 	ldr.w	r0, [r9, r5, lsl #2]
 800360c:	f7fd faa4 	bl	8000b58 <__aeabi_i2f>
 8003610:	3501      	adds	r5, #1
 8003612:	42b5      	cmp	r5, r6
 8003614:	f847 0b04 	str.w	r0, [r7], #4
 8003618:	d007      	beq.n	800362a <__kernel_rem_pio2f+0x82>
 800361a:	2d00      	cmp	r5, #0
 800361c:	daf4      	bge.n	8003608 <__kernel_rem_pio2f+0x60>
 800361e:	3501      	adds	r5, #1
 8003620:	4620      	mov	r0, r4
 8003622:	42b5      	cmp	r5, r6
 8003624:	f847 0b04 	str.w	r0, [r7], #4
 8003628:	d1f7      	bne.n	800361a <__kernel_rem_pio2f+0x72>
 800362a:	f8dd c000 	ldr.w	ip, [sp]
 800362e:	465a      	mov	r2, fp
 8003630:	f1ba 0f00 	cmp.w	sl, #0
 8003634:	f2c0 833c 	blt.w	8003cb0 <__kernel_rem_pio2f+0x708>
 8003638:	9801      	ldr	r0, [sp, #4]
 800363a:	f1a8 0404 	sub.w	r4, r8, #4
 800363e:	f10d 0980 	add.w	r9, sp, #128	@ 0x80
 8003642:	9402      	str	r4, [sp, #8]
 8003644:	eb09 098c 	add.w	r9, r9, ip, lsl #2
 8003648:	2100      	movs	r1, #0
 800364a:	af48      	add	r7, sp, #288	@ 0x120
 800364c:	ea4f 058c 	mov.w	r5, ip, lsl #2
 8003650:	4683      	mov	fp, r0
 8003652:	eb0a 030c 	add.w	r3, sl, ip
 8003656:	eb04 068c 	add.w	r6, r4, ip, lsl #2
 800365a:	2800      	cmp	r0, #0
 800365c:	f280 81a9 	bge.w	80039b2 <__kernel_rem_pio2f+0x40a>
 8003660:	f10b 0b01 	add.w	fp, fp, #1
 8003664:	459b      	cmp	fp, r3
 8003666:	f847 1b04 	str.w	r1, [r7], #4
 800366a:	f109 0904 	add.w	r9, r9, #4
 800366e:	d1f4      	bne.n	800365a <__kernel_rem_pio2f+0xb2>
 8003670:	9b02      	ldr	r3, [sp, #8]
 8003672:	f8cd a00c 	str.w	sl, [sp, #12]
 8003676:	441d      	add	r5, r3
 8003678:	ab0c      	add	r3, sp, #48	@ 0x30
 800367a:	eb03 038a 	add.w	r3, r3, sl, lsl #2
 800367e:	3b04      	subs	r3, #4
 8003680:	9307      	str	r3, [sp, #28]
 8003682:	ab0c      	add	r3, sp, #48	@ 0x30
 8003684:	eb03 038a 	add.w	r3, r3, sl, lsl #2
 8003688:	4654      	mov	r4, sl
 800368a:	920b      	str	r2, [sp, #44]	@ 0x2c
 800368c:	469a      	mov	sl, r3
 800368e:	f8cd c020 	str.w	ip, [sp, #32]
 8003692:	eb0d 0384 	add.w	r3, sp, r4, lsl #2
 8003696:	2c00      	cmp	r4, #0
 8003698:	f8d3 b120 	ldr.w	fp, [r3, #288]	@ 0x120
 800369c:	ea4f 0984 	mov.w	r9, r4, lsl #2
 80036a0:	dd2e      	ble.n	8003700 <__kernel_rem_pio2f+0x158>
 80036a2:	f50d 7890 	add.w	r8, sp, #288	@ 0x120
 80036a6:	eb08 0609 	add.w	r6, r8, r9
 80036aa:	af0c      	add	r7, sp, #48	@ 0x30
 80036ac:	464b      	mov	r3, r9
 80036ae:	9400      	str	r4, [sp, #0]
 80036b0:	46a9      	mov	r9, r5
 80036b2:	463c      	mov	r4, r7
 80036b4:	465d      	mov	r5, fp
 80036b6:	4637      	mov	r7, r6
 80036b8:	469b      	mov	fp, r3
 80036ba:	f04f 516e 	mov.w	r1, #998244352	@ 0x3b800000
 80036be:	4628      	mov	r0, r5
 80036c0:	f7fd fa9e 	bl	8000c00 <__aeabi_fmul>
 80036c4:	f7fd fc78 	bl	8000fb8 <__aeabi_f2iz>
 80036c8:	f7fd fa46 	bl	8000b58 <__aeabi_i2f>
 80036cc:	f04f 4187 	mov.w	r1, #1132462080	@ 0x43800000
 80036d0:	4606      	mov	r6, r0
 80036d2:	f7fd fa95 	bl	8000c00 <__aeabi_fmul>
 80036d6:	4601      	mov	r1, r0
 80036d8:	4628      	mov	r0, r5
 80036da:	f7fd f987 	bl	80009ec <__aeabi_fsub>
 80036de:	f7fd fc6b 	bl	8000fb8 <__aeabi_f2iz>
 80036e2:	f857 1d04 	ldr.w	r1, [r7, #-4]!
 80036e6:	f844 0b04 	str.w	r0, [r4], #4
 80036ea:	4630      	mov	r0, r6
 80036ec:	f7fd f980 	bl	80009f0 <__addsf3>
 80036f0:	4547      	cmp	r7, r8
 80036f2:	4605      	mov	r5, r0
 80036f4:	d1e1      	bne.n	80036ba <__kernel_rem_pio2f+0x112>
 80036f6:	465b      	mov	r3, fp
 80036f8:	9c00      	ldr	r4, [sp, #0]
 80036fa:	464d      	mov	r5, r9
 80036fc:	4683      	mov	fp, r0
 80036fe:	4699      	mov	r9, r3
 8003700:	4658      	mov	r0, fp
 8003702:	f8dd b010 	ldr.w	fp, [sp, #16]
 8003706:	4659      	mov	r1, fp
 8003708:	f000 fb00 	bl	8003d0c <scalbnf>
 800370c:	f04f 5178 	mov.w	r1, #1040187392	@ 0x3e000000
 8003710:	4606      	mov	r6, r0
 8003712:	f7fd fa75 	bl	8000c00 <__aeabi_fmul>
 8003716:	f000 fb51 	bl	8003dbc <floorf>
 800371a:	f04f 4182 	mov.w	r1, #1090519040	@ 0x41000000
 800371e:	f7fd fa6f 	bl	8000c00 <__aeabi_fmul>
 8003722:	4601      	mov	r1, r0
 8003724:	4630      	mov	r0, r6
 8003726:	f7fd f961 	bl	80009ec <__aeabi_fsub>
 800372a:	4606      	mov	r6, r0
 800372c:	f7fd fc44 	bl	8000fb8 <__aeabi_f2iz>
 8003730:	4607      	mov	r7, r0
 8003732:	f7fd fa11 	bl	8000b58 <__aeabi_i2f>
 8003736:	4601      	mov	r1, r0
 8003738:	4630      	mov	r0, r6
 800373a:	f7fd f957 	bl	80009ec <__aeabi_fsub>
 800373e:	4659      	mov	r1, fp
 8003740:	2900      	cmp	r1, #0
 8003742:	4680      	mov	r8, r0
 8003744:	dd7d      	ble.n	8003842 <__kernel_rem_pio2f+0x29a>
 8003746:	1e62      	subs	r2, r4, #1
 8003748:	a80c      	add	r0, sp, #48	@ 0x30
 800374a:	f1cb 0308 	rsb	r3, fp, #8
 800374e:	f850 0022 	ldr.w	r0, [r0, r2, lsl #2]
 8003752:	fa40 f103 	asr.w	r1, r0, r3
 8003756:	fa01 f303 	lsl.w	r3, r1, r3
 800375a:	1ac3      	subs	r3, r0, r3
 800375c:	f1cb 0607 	rsb	r6, fp, #7
 8003760:	440f      	add	r7, r1
 8003762:	fa43 f606 	asr.w	r6, r3, r6
 8003766:	a90c      	add	r1, sp, #48	@ 0x30
 8003768:	2e00      	cmp	r6, #0
 800376a:	f841 3022 	str.w	r3, [r1, r2, lsl #2]
 800376e:	f300 810d 	bgt.w	800398c <__kernel_rem_pio2f+0x3e4>
 8003772:	2100      	movs	r1, #0
 8003774:	4640      	mov	r0, r8
 8003776:	f7fd fbd7 	bl	8000f28 <__aeabi_fcmpeq>
 800377a:	2800      	cmp	r0, #0
 800377c:	f000 80b7 	beq.w	80038ee <__kernel_rem_pio2f+0x346>
 8003780:	9b03      	ldr	r3, [sp, #12]
 8003782:	429c      	cmp	r4, r3
 8003784:	dd0c      	ble.n	80037a0 <__kernel_rem_pio2f+0x1f8>
 8003786:	f109 0330 	add.w	r3, r9, #48	@ 0x30
 800378a:	446b      	add	r3, sp
 800378c:	2200      	movs	r2, #0
 800378e:	f853 1d04 	ldr.w	r1, [r3, #-4]!
 8003792:	4553      	cmp	r3, sl
 8003794:	ea42 0201 	orr.w	r2, r2, r1
 8003798:	d1f9      	bne.n	800378e <__kernel_rem_pio2f+0x1e6>
 800379a:	2a00      	cmp	r2, #0
 800379c:	f040 8130 	bne.w	8003a00 <__kernel_rem_pio2f+0x458>
 80037a0:	9b03      	ldr	r3, [sp, #12]
 80037a2:	aa0c      	add	r2, sp, #48	@ 0x30
 80037a4:	3b01      	subs	r3, #1
 80037a6:	1c66      	adds	r6, r4, #1
 80037a8:	f852 3023 	ldr.w	r3, [r2, r3, lsl #2]
 80037ac:	2b00      	cmp	r3, #0
 80037ae:	f040 80fe 	bne.w	80039ae <__kernel_rem_pio2f+0x406>
 80037b2:	9a07      	ldr	r2, [sp, #28]
 80037b4:	2301      	movs	r3, #1
 80037b6:	f852 1d04 	ldr.w	r1, [r2, #-4]!
 80037ba:	3301      	adds	r3, #1
 80037bc:	2900      	cmp	r1, #0
 80037be:	d0fa      	beq.n	80037b6 <__kernel_rem_pio2f+0x20e>
 80037c0:	18e2      	adds	r2, r4, r3
 80037c2:	9b08      	ldr	r3, [sp, #32]
 80037c4:	9200      	str	r2, [sp, #0]
 80037c6:	441c      	add	r4, r3
 80037c8:	9b06      	ldr	r3, [sp, #24]
 80037ca:	f8cd a014 	str.w	sl, [sp, #20]
 80037ce:	eb03 0806 	add.w	r8, r3, r6
 80037d2:	f108 4880 	add.w	r8, r8, #1073741824	@ 0x40000000
 80037d6:	9b67      	ldr	r3, [sp, #412]	@ 0x19c
 80037d8:	f108 38ff 	add.w	r8, r8, #4294967295	@ 0xffffffff
 80037dc:	eb03 0888 	add.w	r8, r3, r8, lsl #2
 80037e0:	af20      	add	r7, sp, #128	@ 0x80
 80037e2:	ab48      	add	r3, sp, #288	@ 0x120
 80037e4:	eb07 0784 	add.w	r7, r7, r4, lsl #2
 80037e8:	4499      	add	r9, r3
 80037ea:	f858 0f04 	ldr.w	r0, [r8, #4]!
 80037ee:	f7fd f9b3 	bl	8000b58 <__aeabi_i2f>
 80037f2:	9b01      	ldr	r3, [sp, #4]
 80037f4:	f847 0b04 	str.w	r0, [r7], #4
 80037f8:	2b00      	cmp	r3, #0
 80037fa:	db1a      	blt.n	8003832 <__kernel_rem_pio2f+0x28a>
 80037fc:	f8dd b008 	ldr.w	fp, [sp, #8]
 8003800:	46ba      	mov	sl, r7
 8003802:	2400      	movs	r4, #0
 8003804:	f85a 1d04 	ldr.w	r1, [sl, #-4]!
 8003808:	f85b 0f04 	ldr.w	r0, [fp, #4]!
 800380c:	f7fd f9f8 	bl	8000c00 <__aeabi_fmul>
 8003810:	4601      	mov	r1, r0
 8003812:	4620      	mov	r0, r4
 8003814:	f7fd f8ec 	bl	80009f0 <__addsf3>
 8003818:	45ab      	cmp	fp, r5
 800381a:	4604      	mov	r4, r0
 800381c:	d1f2      	bne.n	8003804 <__kernel_rem_pio2f+0x25c>
 800381e:	9b00      	ldr	r3, [sp, #0]
 8003820:	f849 4f04 	str.w	r4, [r9, #4]!
 8003824:	3601      	adds	r6, #1
 8003826:	429e      	cmp	r6, r3
 8003828:	dddf      	ble.n	80037ea <__kernel_rem_pio2f+0x242>
 800382a:	f8dd a014 	ldr.w	sl, [sp, #20]
 800382e:	461c      	mov	r4, r3
 8003830:	e72f      	b.n	8003692 <__kernel_rem_pio2f+0xea>
 8003832:	9b00      	ldr	r3, [sp, #0]
 8003834:	3601      	adds	r6, #1
 8003836:	2400      	movs	r4, #0
 8003838:	429e      	cmp	r6, r3
 800383a:	f849 4f04 	str.w	r4, [r9, #4]!
 800383e:	ddd4      	ble.n	80037ea <__kernel_rem_pio2f+0x242>
 8003840:	e7f3      	b.n	800382a <__kernel_rem_pio2f+0x282>
 8003842:	f000 808c 	beq.w	800395e <__kernel_rem_pio2f+0x3b6>
 8003846:	f04f 517c 	mov.w	r1, #1056964608	@ 0x3f000000
 800384a:	f7fd fb8b 	bl	8000f64 <__aeabi_fcmpge>
 800384e:	4606      	mov	r6, r0
 8003850:	2800      	cmp	r0, #0
 8003852:	d08e      	beq.n	8003772 <__kernel_rem_pio2f+0x1ca>
 8003854:	2c00      	cmp	r4, #0
 8003856:	f107 0701 	add.w	r7, r7, #1
 800385a:	bfc8      	it	gt
 800385c:	2602      	movgt	r6, #2
 800385e:	f340 821f 	ble.w	8003ca0 <__kernel_rem_pio2f+0x6f8>
 8003862:	aa0c      	add	r2, sp, #48	@ 0x30
 8003864:	2100      	movs	r1, #0
 8003866:	f852 3b04 	ldr.w	r3, [r2], #4
 800386a:	2b00      	cmp	r3, #0
 800386c:	d073      	beq.n	8003956 <__kernel_rem_pio2f+0x3ae>
 800386e:	f5c3 7380 	rsb	r3, r3, #256	@ 0x100
 8003872:	f842 3c04 	str.w	r3, [r2, #-4]
 8003876:	e006      	b.n	8003886 <__kernel_rem_pio2f+0x2de>
 8003878:	0800422c 	.word	0x0800422c
 800387c:	6813      	ldr	r3, [r2, #0]
 800387e:	f1c3 03ff 	rsb	r3, r3, #255	@ 0xff
 8003882:	f842 3b04 	str.w	r3, [r2], #4
 8003886:	3101      	adds	r1, #1
 8003888:	428c      	cmp	r4, r1
 800388a:	dcf7      	bgt.n	800387c <__kernel_rem_pio2f+0x2d4>
 800388c:	2301      	movs	r3, #1
 800388e:	9a04      	ldr	r2, [sp, #16]
 8003890:	2a00      	cmp	r2, #0
 8003892:	dd0d      	ble.n	80038b0 <__kernel_rem_pio2f+0x308>
 8003894:	2a01      	cmp	r2, #1
 8003896:	f000 814e 	beq.w	8003b36 <__kernel_rem_pio2f+0x58e>
 800389a:	2a02      	cmp	r2, #2
 800389c:	d108      	bne.n	80038b0 <__kernel_rem_pio2f+0x308>
 800389e:	1e61      	subs	r1, r4, #1
 80038a0:	aa0c      	add	r2, sp, #48	@ 0x30
 80038a2:	a80c      	add	r0, sp, #48	@ 0x30
 80038a4:	f852 2021 	ldr.w	r2, [r2, r1, lsl #2]
 80038a8:	f002 023f 	and.w	r2, r2, #63	@ 0x3f
 80038ac:	f840 2021 	str.w	r2, [r0, r1, lsl #2]
 80038b0:	2e02      	cmp	r6, #2
 80038b2:	f47f af5e 	bne.w	8003772 <__kernel_rem_pio2f+0x1ca>
 80038b6:	4641      	mov	r1, r8
 80038b8:	f04f 507e 	mov.w	r0, #1065353216	@ 0x3f800000
 80038bc:	9300      	str	r3, [sp, #0]
 80038be:	f7fd f895 	bl	80009ec <__aeabi_fsub>
 80038c2:	9b00      	ldr	r3, [sp, #0]
 80038c4:	4680      	mov	r8, r0
 80038c6:	2b00      	cmp	r3, #0
 80038c8:	f43f af53 	beq.w	8003772 <__kernel_rem_pio2f+0x1ca>
 80038cc:	9904      	ldr	r1, [sp, #16]
 80038ce:	f04f 507e 	mov.w	r0, #1065353216	@ 0x3f800000
 80038d2:	f000 fa1b 	bl	8003d0c <scalbnf>
 80038d6:	4601      	mov	r1, r0
 80038d8:	4640      	mov	r0, r8
 80038da:	f7fd f887 	bl	80009ec <__aeabi_fsub>
 80038de:	4680      	mov	r8, r0
 80038e0:	2100      	movs	r1, #0
 80038e2:	4640      	mov	r0, r8
 80038e4:	f7fd fb20 	bl	8000f28 <__aeabi_fcmpeq>
 80038e8:	2800      	cmp	r0, #0
 80038ea:	f47f af49 	bne.w	8003780 <__kernel_rem_pio2f+0x1d8>
 80038ee:	e9dd 320a 	ldrd	r3, r2, [sp, #40]	@ 0x28
 80038f2:	4640      	mov	r0, r8
 80038f4:	1a99      	subs	r1, r3, r2
 80038f6:	f8dd a00c 	ldr.w	sl, [sp, #12]
 80038fa:	f000 fa07 	bl	8003d0c <scalbnf>
 80038fe:	f04f 4187 	mov.w	r1, #1132462080	@ 0x43800000
 8003902:	46a1      	mov	r9, r4
 8003904:	4604      	mov	r4, r0
 8003906:	f7fd fb2d 	bl	8000f64 <__aeabi_fcmpge>
 800390a:	2800      	cmp	r0, #0
 800390c:	f000 81a7 	beq.w	8003c5e <__kernel_rem_pio2f+0x6b6>
 8003910:	f04f 516e 	mov.w	r1, #998244352	@ 0x3b800000
 8003914:	4620      	mov	r0, r4
 8003916:	f7fd f973 	bl	8000c00 <__aeabi_fmul>
 800391a:	f7fd fb4d 	bl	8000fb8 <__aeabi_f2iz>
 800391e:	f7fd f91b 	bl	8000b58 <__aeabi_i2f>
 8003922:	f04f 4187 	mov.w	r1, #1132462080	@ 0x43800000
 8003926:	4605      	mov	r5, r0
 8003928:	f7fd f96a 	bl	8000c00 <__aeabi_fmul>
 800392c:	4601      	mov	r1, r0
 800392e:	4620      	mov	r0, r4
 8003930:	f7fd f85c 	bl	80009ec <__aeabi_fsub>
 8003934:	f7fd fb40 	bl	8000fb8 <__aeabi_f2iz>
 8003938:	ab0c      	add	r3, sp, #48	@ 0x30
 800393a:	f109 0801 	add.w	r8, r9, #1
 800393e:	f843 0029 	str.w	r0, [r3, r9, lsl #2]
 8003942:	9b04      	ldr	r3, [sp, #16]
 8003944:	4628      	mov	r0, r5
 8003946:	3308      	adds	r3, #8
 8003948:	9304      	str	r3, [sp, #16]
 800394a:	f7fd fb35 	bl	8000fb8 <__aeabi_f2iz>
 800394e:	ab0c      	add	r3, sp, #48	@ 0x30
 8003950:	f843 0028 	str.w	r0, [r3, r8, lsl #2]
 8003954:	e06d      	b.n	8003a32 <__kernel_rem_pio2f+0x48a>
 8003956:	3101      	adds	r1, #1
 8003958:	428c      	cmp	r4, r1
 800395a:	dc84      	bgt.n	8003866 <__kernel_rem_pio2f+0x2be>
 800395c:	e797      	b.n	800388e <__kernel_rem_pio2f+0x2e6>
 800395e:	1e63      	subs	r3, r4, #1
 8003960:	aa0c      	add	r2, sp, #48	@ 0x30
 8003962:	f852 6023 	ldr.w	r6, [r2, r3, lsl #2]
 8003966:	11f6      	asrs	r6, r6, #7
 8003968:	2e00      	cmp	r6, #0
 800396a:	f77f af02 	ble.w	8003772 <__kernel_rem_pio2f+0x1ca>
 800396e:	2c00      	cmp	r4, #0
 8003970:	f107 0701 	add.w	r7, r7, #1
 8003974:	f73f af75 	bgt.w	8003862 <__kernel_rem_pio2f+0x2ba>
 8003978:	2e02      	cmp	r6, #2
 800397a:	f47f aefa 	bne.w	8003772 <__kernel_rem_pio2f+0x1ca>
 800397e:	4641      	mov	r1, r8
 8003980:	f04f 507e 	mov.w	r0, #1065353216	@ 0x3f800000
 8003984:	f7fd f832 	bl	80009ec <__aeabi_fsub>
 8003988:	4680      	mov	r8, r0
 800398a:	e6f2      	b.n	8003772 <__kernel_rem_pio2f+0x1ca>
 800398c:	2c00      	cmp	r4, #0
 800398e:	f107 0701 	add.w	r7, r7, #1
 8003992:	f73f af66 	bgt.w	8003862 <__kernel_rem_pio2f+0x2ba>
 8003996:	9904      	ldr	r1, [sp, #16]
 8003998:	2901      	cmp	r1, #1
 800399a:	f000 819b 	beq.w	8003cd4 <__kernel_rem_pio2f+0x72c>
 800399e:	2902      	cmp	r1, #2
 80039a0:	d1ea      	bne.n	8003978 <__kernel_rem_pio2f+0x3d0>
 80039a2:	a90c      	add	r1, sp, #48	@ 0x30
 80039a4:	f003 033f 	and.w	r3, r3, #63	@ 0x3f
 80039a8:	f841 3022 	str.w	r3, [r1, r2, lsl #2]
 80039ac:	e7e4      	b.n	8003978 <__kernel_rem_pio2f+0x3d0>
 80039ae:	4632      	mov	r2, r6
 80039b0:	e707      	b.n	80037c2 <__kernel_rem_pio2f+0x21a>
 80039b2:	f8cd a000 	str.w	sl, [sp]
 80039b6:	4698      	mov	r8, r3
 80039b8:	46da      	mov	sl, fp
 80039ba:	9203      	str	r2, [sp, #12]
 80039bc:	f8cd c014 	str.w	ip, [sp, #20]
 80039c0:	9507      	str	r5, [sp, #28]
 80039c2:	9d02      	ldr	r5, [sp, #8]
 80039c4:	46cb      	mov	fp, r9
 80039c6:	2400      	movs	r4, #0
 80039c8:	f85b 1d04 	ldr.w	r1, [fp, #-4]!
 80039cc:	f855 0f04 	ldr.w	r0, [r5, #4]!
 80039d0:	f7fd f916 	bl	8000c00 <__aeabi_fmul>
 80039d4:	4601      	mov	r1, r0
 80039d6:	4620      	mov	r0, r4
 80039d8:	f7fd f80a 	bl	80009f0 <__addsf3>
 80039dc:	42b5      	cmp	r5, r6
 80039de:	4604      	mov	r4, r0
 80039e0:	d1f2      	bne.n	80039c8 <__kernel_rem_pio2f+0x420>
 80039e2:	f10a 0a01 	add.w	sl, sl, #1
 80039e6:	45c2      	cmp	sl, r8
 80039e8:	f847 0b04 	str.w	r0, [r7], #4
 80039ec:	f109 0904 	add.w	r9, r9, #4
 80039f0:	d1e7      	bne.n	80039c2 <__kernel_rem_pio2f+0x41a>
 80039f2:	f8dd a000 	ldr.w	sl, [sp]
 80039f6:	9a03      	ldr	r2, [sp, #12]
 80039f8:	f8dd c014 	ldr.w	ip, [sp, #20]
 80039fc:	9d07      	ldr	r5, [sp, #28]
 80039fe:	e637      	b.n	8003670 <__kernel_rem_pio2f+0xc8>
 8003a00:	e9dd a303 	ldrd	sl, r3, [sp, #12]
 8003a04:	f104 38ff 	add.w	r8, r4, #4294967295	@ 0xffffffff
 8003a08:	f1a3 0208 	sub.w	r2, r3, #8
 8003a0c:	ab0c      	add	r3, sp, #48	@ 0x30
 8003a0e:	9204      	str	r2, [sp, #16]
 8003a10:	f853 3028 	ldr.w	r3, [r3, r8, lsl #2]
 8003a14:	b96b      	cbnz	r3, 8003a32 <__kernel_rem_pio2f+0x48a>
 8003a16:	f104 4380 	add.w	r3, r4, #1073741824	@ 0x40000000
 8003a1a:	3b01      	subs	r3, #1
 8003a1c:	a90c      	add	r1, sp, #48	@ 0x30
 8003a1e:	eb01 0383 	add.w	r3, r1, r3, lsl #2
 8003a22:	f853 1d04 	ldr.w	r1, [r3, #-4]!
 8003a26:	f108 38ff 	add.w	r8, r8, #4294967295	@ 0xffffffff
 8003a2a:	3a08      	subs	r2, #8
 8003a2c:	2900      	cmp	r1, #0
 8003a2e:	d0f8      	beq.n	8003a22 <__kernel_rem_pio2f+0x47a>
 8003a30:	9204      	str	r2, [sp, #16]
 8003a32:	9904      	ldr	r1, [sp, #16]
 8003a34:	f04f 507e 	mov.w	r0, #1065353216	@ 0x3f800000
 8003a38:	f000 f968 	bl	8003d0c <scalbnf>
 8003a3c:	f1b8 0f00 	cmp.w	r8, #0
 8003a40:	4605      	mov	r5, r0
 8003a42:	f2c0 813b 	blt.w	8003cbc <__kernel_rem_pio2f+0x714>
 8003a46:	f108 0401 	add.w	r4, r8, #1
 8003a4a:	ab0c      	add	r3, sp, #48	@ 0x30
 8003a4c:	eb03 0b84 	add.w	fp, r3, r4, lsl #2
 8003a50:	00a1      	lsls	r1, r4, #2
 8003a52:	ab48      	add	r3, sp, #288	@ 0x120
 8003a54:	9600      	str	r6, [sp, #0]
 8003a56:	f04f 596e 	mov.w	r9, #998244352	@ 0x3b800000
 8003a5a:	465e      	mov	r6, fp
 8003a5c:	eb03 0484 	add.w	r4, r3, r4, lsl #2
 8003a60:	468b      	mov	fp, r1
 8003a62:	f856 0d04 	ldr.w	r0, [r6, #-4]!
 8003a66:	f7fd f877 	bl	8000b58 <__aeabi_i2f>
 8003a6a:	4629      	mov	r1, r5
 8003a6c:	f7fd f8c8 	bl	8000c00 <__aeabi_fmul>
 8003a70:	4649      	mov	r1, r9
 8003a72:	f844 0d04 	str.w	r0, [r4, #-4]!
 8003a76:	4628      	mov	r0, r5
 8003a78:	f7fd f8c2 	bl	8000c00 <__aeabi_fmul>
 8003a7c:	ab0c      	add	r3, sp, #48	@ 0x30
 8003a7e:	429e      	cmp	r6, r3
 8003a80:	4605      	mov	r5, r0
 8003a82:	d1ee      	bne.n	8003a62 <__kernel_rem_pio2f+0x4ba>
 8003a84:	f1ab 0208 	sub.w	r2, fp, #8
 8003a88:	ab48      	add	r3, sp, #288	@ 0x120
 8003a8a:	9e00      	ldr	r6, [sp, #0]
 8003a8c:	9701      	str	r7, [sp, #4]
 8003a8e:	4659      	mov	r1, fp
 8003a90:	f10d 09d0 	add.w	r9, sp, #208	@ 0xd0
 8003a94:	441a      	add	r2, r3
 8003a96:	f04f 0b00 	mov.w	fp, #0
 8003a9a:	f1ba 0f00 	cmp.w	sl, #0
 8003a9e:	9602      	str	r6, [sp, #8]
 8003aa0:	4617      	mov	r7, r2
 8003aa2:	464e      	mov	r6, r9
 8003aa4:	f8cd 8000 	str.w	r8, [sp]
 8003aa8:	46d9      	mov	r9, fp
 8003aaa:	9103      	str	r1, [sp, #12]
 8003aac:	db22      	blt.n	8003af4 <__kernel_rem_pio2f+0x54c>
 8003aae:	f8df 8258 	ldr.w	r8, [pc, #600]	@ 8003d08 <__kernel_rem_pio2f+0x760>
 8003ab2:	46bb      	mov	fp, r7
 8003ab4:	2400      	movs	r4, #0
 8003ab6:	2500      	movs	r5, #0
 8003ab8:	e00d      	b.n	8003ad6 <__kernel_rem_pio2f+0x52e>
 8003aba:	f85b 1f04 	ldr.w	r1, [fp, #4]!
 8003abe:	f858 0b04 	ldr.w	r0, [r8], #4
 8003ac2:	f7fd f89d 	bl	8000c00 <__aeabi_fmul>
 8003ac6:	4601      	mov	r1, r0
 8003ac8:	4620      	mov	r0, r4
 8003aca:	f7fc ff91 	bl	80009f0 <__addsf3>
 8003ace:	3501      	adds	r5, #1
 8003ad0:	45aa      	cmp	sl, r5
 8003ad2:	4604      	mov	r4, r0
 8003ad4:	db01      	blt.n	8003ada <__kernel_rem_pio2f+0x532>
 8003ad6:	454d      	cmp	r5, r9
 8003ad8:	ddef      	ble.n	8003aba <__kernel_rem_pio2f+0x512>
 8003ada:	9a00      	ldr	r2, [sp, #0]
 8003adc:	f846 4b04 	str.w	r4, [r6], #4
 8003ae0:	4591      	cmp	r9, r2
 8003ae2:	f109 0301 	add.w	r3, r9, #1
 8003ae6:	f1a7 0704 	sub.w	r7, r7, #4
 8003aea:	d005      	beq.n	8003af8 <__kernel_rem_pio2f+0x550>
 8003aec:	f1ba 0f00 	cmp.w	sl, #0
 8003af0:	4699      	mov	r9, r3
 8003af2:	dadc      	bge.n	8003aae <__kernel_rem_pio2f+0x506>
 8003af4:	2400      	movs	r4, #0
 8003af6:	e7f0      	b.n	8003ada <__kernel_rem_pio2f+0x532>
 8003af8:	9b66      	ldr	r3, [sp, #408]	@ 0x198
 8003afa:	f8dd 8000 	ldr.w	r8, [sp]
 8003afe:	9903      	ldr	r1, [sp, #12]
 8003b00:	2b02      	cmp	r3, #2
 8003b02:	e9dd 7601 	ldrd	r7, r6, [sp, #4]
 8003b06:	dc50      	bgt.n	8003baa <__kernel_rem_pio2f+0x602>
 8003b08:	2b00      	cmp	r3, #0
 8003b0a:	dc23      	bgt.n	8003b54 <__kernel_rem_pio2f+0x5ac>
 8003b0c:	d10e      	bne.n	8003b2c <__kernel_rem_pio2f+0x584>
 8003b0e:	ab34      	add	r3, sp, #208	@ 0xd0
 8003b10:	185c      	adds	r4, r3, r1
 8003b12:	2000      	movs	r0, #0
 8003b14:	f854 1d04 	ldr.w	r1, [r4, #-4]!
 8003b18:	f7fc ff6a 	bl	80009f0 <__addsf3>
 8003b1c:	ab34      	add	r3, sp, #208	@ 0xd0
 8003b1e:	42a3      	cmp	r3, r4
 8003b20:	d1f8      	bne.n	8003b14 <__kernel_rem_pio2f+0x56c>
 8003b22:	2e00      	cmp	r6, #0
 8003b24:	f040 80ae 	bne.w	8003c84 <__kernel_rem_pio2f+0x6dc>
 8003b28:	9b09      	ldr	r3, [sp, #36]	@ 0x24
 8003b2a:	6018      	str	r0, [r3, #0]
 8003b2c:	f007 0007 	and.w	r0, r7, #7
 8003b30:	b05d      	add	sp, #372	@ 0x174
 8003b32:	e8bd 8ff0 	ldmia.w	sp!, {r4, r5, r6, r7, r8, r9, sl, fp, pc}
 8003b36:	1e61      	subs	r1, r4, #1
 8003b38:	aa0c      	add	r2, sp, #48	@ 0x30
 8003b3a:	a80c      	add	r0, sp, #48	@ 0x30
 8003b3c:	f852 2021 	ldr.w	r2, [r2, r1, lsl #2]
 8003b40:	f002 027f 	and.w	r2, r2, #127	@ 0x7f
 8003b44:	f840 2021 	str.w	r2, [r0, r1, lsl #2]
 8003b48:	e6b2      	b.n	80038b0 <__kernel_rem_pio2f+0x308>
 8003b4a:	2308      	movs	r3, #8
 8003b4c:	930a      	str	r3, [sp, #40]	@ 0x28
 8003b4e:	2300      	movs	r3, #0
 8003b50:	9306      	str	r3, [sp, #24]
 8003b52:	e541      	b.n	80035d8 <__kernel_rem_pio2f+0x30>
 8003b54:	ab34      	add	r3, sp, #208	@ 0xd0
 8003b56:	2500      	movs	r5, #0
 8003b58:	f8dd a0d0 	ldr.w	sl, [sp, #208]	@ 0xd0
 8003b5c:	185c      	adds	r4, r3, r1
 8003b5e:	4628      	mov	r0, r5
 8003b60:	f854 1d04 	ldr.w	r1, [r4, #-4]!
 8003b64:	f7fc ff44 	bl	80009f0 <__addsf3>
 8003b68:	ab34      	add	r3, sp, #208	@ 0xd0
 8003b6a:	42a3      	cmp	r3, r4
 8003b6c:	d1f8      	bne.n	8003b60 <__kernel_rem_pio2f+0x5b8>
 8003b6e:	4605      	mov	r5, r0
 8003b70:	4650      	mov	r0, sl
 8003b72:	2e00      	cmp	r6, #0
 8003b74:	d17b      	bne.n	8003c6e <__kernel_rem_pio2f+0x6c6>
 8003b76:	4629      	mov	r1, r5
 8003b78:	f7fc ff38 	bl	80009ec <__aeabi_fsub>
 8003b7c:	9b09      	ldr	r3, [sp, #36]	@ 0x24
 8003b7e:	601d      	str	r5, [r3, #0]
 8003b80:	f1b8 0f00 	cmp.w	r8, #0
 8003b84:	d00a      	beq.n	8003b9c <__kernel_rem_pio2f+0x5f4>
 8003b86:	2501      	movs	r5, #1
 8003b88:	f854 1f04 	ldr.w	r1, [r4, #4]!
 8003b8c:	3501      	adds	r5, #1
 8003b8e:	f7fc ff2f 	bl	80009f0 <__addsf3>
 8003b92:	45a8      	cmp	r8, r5
 8003b94:	daf8      	bge.n	8003b88 <__kernel_rem_pio2f+0x5e0>
 8003b96:	b10e      	cbz	r6, 8003b9c <__kernel_rem_pio2f+0x5f4>
 8003b98:	f100 4000 	add.w	r0, r0, #2147483648	@ 0x80000000
 8003b9c:	9b09      	ldr	r3, [sp, #36]	@ 0x24
 8003b9e:	6058      	str	r0, [r3, #4]
 8003ba0:	f007 0007 	and.w	r0, r7, #7
 8003ba4:	b05d      	add	sp, #372	@ 0x174
 8003ba6:	e8bd 8ff0 	ldmia.w	sp!, {r4, r5, r6, r7, r8, r9, sl, fp, pc}
 8003baa:	9b66      	ldr	r3, [sp, #408]	@ 0x198
 8003bac:	2b03      	cmp	r3, #3
 8003bae:	d1bd      	bne.n	8003b2c <__kernel_rem_pio2f+0x584>
 8003bb0:	f1b8 0f00 	cmp.w	r8, #0
 8003bb4:	f000 809b 	beq.w	8003cee <__kernel_rem_pio2f+0x746>
 8003bb8:	ab34      	add	r3, sp, #208	@ 0xd0
 8003bba:	eb03 0b88 	add.w	fp, r3, r8, lsl #2
 8003bbe:	ea4f 0588 	mov.w	r5, r8, lsl #2
 8003bc2:	f853 4028 	ldr.w	r4, [r3, r8, lsl #2]
 8003bc6:	9500      	str	r5, [sp, #0]
 8003bc8:	46da      	mov	sl, fp
 8003bca:	f85a 5c04 	ldr.w	r5, [sl, #-4]
 8003bce:	4620      	mov	r0, r4
 8003bd0:	4629      	mov	r1, r5
 8003bd2:	f7fc ff0d 	bl	80009f0 <__addsf3>
 8003bd6:	46a1      	mov	r9, r4
 8003bd8:	4604      	mov	r4, r0
 8003bda:	4621      	mov	r1, r4
 8003bdc:	4628      	mov	r0, r5
 8003bde:	f7fc ff05 	bl	80009ec <__aeabi_fsub>
 8003be2:	4649      	mov	r1, r9
 8003be4:	f7fc ff04 	bl	80009f0 <__addsf3>
 8003be8:	f8ca 0000 	str.w	r0, [sl]
 8003bec:	f84a 4d04 	str.w	r4, [sl, #-4]!
 8003bf0:	ab34      	add	r3, sp, #208	@ 0xd0
 8003bf2:	4553      	cmp	r3, sl
 8003bf4:	d1e9      	bne.n	8003bca <__kernel_rem_pio2f+0x622>
 8003bf6:	f1b8 0f01 	cmp.w	r8, #1
 8003bfa:	9d00      	ldr	r5, [sp, #0]
 8003bfc:	d077      	beq.n	8003cee <__kernel_rem_pio2f+0x746>
 8003bfe:	595c      	ldr	r4, [r3, r5]
 8003c00:	f103 0804 	add.w	r8, r3, #4
 8003c04:	f85b ac04 	ldr.w	sl, [fp, #-4]
 8003c08:	4620      	mov	r0, r4
 8003c0a:	4651      	mov	r1, sl
 8003c0c:	f7fc fef0 	bl	80009f0 <__addsf3>
 8003c10:	46a1      	mov	r9, r4
 8003c12:	4604      	mov	r4, r0
 8003c14:	4621      	mov	r1, r4
 8003c16:	4650      	mov	r0, sl
 8003c18:	f7fc fee8 	bl	80009ec <__aeabi_fsub>
 8003c1c:	4649      	mov	r1, r9
 8003c1e:	f7fc fee7 	bl	80009f0 <__addsf3>
 8003c22:	f8cb 0000 	str.w	r0, [fp]
 8003c26:	f84b 4d04 	str.w	r4, [fp, #-4]!
 8003c2a:	45d8      	cmp	r8, fp
 8003c2c:	d1ea      	bne.n	8003c04 <__kernel_rem_pio2f+0x65c>
 8003c2e:	ab34      	add	r3, sp, #208	@ 0xd0
 8003c30:	1d2c      	adds	r4, r5, #4
 8003c32:	441c      	add	r4, r3
 8003c34:	f103 0908 	add.w	r9, r3, #8
 8003c38:	2000      	movs	r0, #0
 8003c3a:	f854 1d04 	ldr.w	r1, [r4, #-4]!
 8003c3e:	f7fc fed7 	bl	80009f0 <__addsf3>
 8003c42:	45a1      	cmp	r9, r4
 8003c44:	d1f9      	bne.n	8003c3a <__kernel_rem_pio2f+0x692>
 8003c46:	9a34      	ldr	r2, [sp, #208]	@ 0xd0
 8003c48:	9b35      	ldr	r3, [sp, #212]	@ 0xd4
 8003c4a:	b9f6      	cbnz	r6, 8003c8a <__kernel_rem_pio2f+0x6e2>
 8003c4c:	9909      	ldr	r1, [sp, #36]	@ 0x24
 8003c4e:	600a      	str	r2, [r1, #0]
 8003c50:	604b      	str	r3, [r1, #4]
 8003c52:	6088      	str	r0, [r1, #8]
 8003c54:	f007 0007 	and.w	r0, r7, #7
 8003c58:	b05d      	add	sp, #372	@ 0x174
 8003c5a:	e8bd 8ff0 	ldmia.w	sp!, {r4, r5, r6, r7, r8, r9, sl, fp, pc}
 8003c5e:	4620      	mov	r0, r4
 8003c60:	f7fd f9aa 	bl	8000fb8 <__aeabi_f2iz>
 8003c64:	ab0c      	add	r3, sp, #48	@ 0x30
 8003c66:	46c8      	mov	r8, r9
 8003c68:	f843 0029 	str.w	r0, [r3, r9, lsl #2]
 8003c6c:	e6e1      	b.n	8003a32 <__kernel_rem_pio2f+0x48a>
 8003c6e:	9a09      	ldr	r2, [sp, #36]	@ 0x24
 8003c70:	f105 4300 	add.w	r3, r5, #2147483648	@ 0x80000000
 8003c74:	6013      	str	r3, [r2, #0]
 8003c76:	4629      	mov	r1, r5
 8003c78:	f7fc feb8 	bl	80009ec <__aeabi_fsub>
 8003c7c:	f1b8 0f00 	cmp.w	r8, #0
 8003c80:	d181      	bne.n	8003b86 <__kernel_rem_pio2f+0x5de>
 8003c82:	e789      	b.n	8003b98 <__kernel_rem_pio2f+0x5f0>
 8003c84:	f100 4000 	add.w	r0, r0, #2147483648	@ 0x80000000
 8003c88:	e74e      	b.n	8003b28 <__kernel_rem_pio2f+0x580>
 8003c8a:	9909      	ldr	r1, [sp, #36]	@ 0x24
 8003c8c:	f102 4200 	add.w	r2, r2, #2147483648	@ 0x80000000
 8003c90:	f103 4300 	add.w	r3, r3, #2147483648	@ 0x80000000
 8003c94:	f100 4000 	add.w	r0, r0, #2147483648	@ 0x80000000
 8003c98:	600a      	str	r2, [r1, #0]
 8003c9a:	604b      	str	r3, [r1, #4]
 8003c9c:	6088      	str	r0, [r1, #8]
 8003c9e:	e7d9      	b.n	8003c54 <__kernel_rem_pio2f+0x6ac>
 8003ca0:	4641      	mov	r1, r8
 8003ca2:	f04f 507e 	mov.w	r0, #1065353216	@ 0x3f800000
 8003ca6:	f7fc fea1 	bl	80009ec <__aeabi_fsub>
 8003caa:	2602      	movs	r6, #2
 8003cac:	4680      	mov	r8, r0
 8003cae:	e560      	b.n	8003772 <__kernel_rem_pio2f+0x1ca>
 8003cb0:	f1a8 0304 	sub.w	r3, r8, #4
 8003cb4:	9302      	str	r3, [sp, #8]
 8003cb6:	ea4f 058c 	mov.w	r5, ip, lsl #2
 8003cba:	e4d9      	b.n	8003670 <__kernel_rem_pio2f+0xc8>
 8003cbc:	9b66      	ldr	r3, [sp, #408]	@ 0x198
 8003cbe:	2b02      	cmp	r3, #2
 8003cc0:	dc11      	bgt.n	8003ce6 <__kernel_rem_pio2f+0x73e>
 8003cc2:	2b00      	cmp	r3, #0
 8003cc4:	dc15      	bgt.n	8003cf2 <__kernel_rem_pio2f+0x74a>
 8003cc6:	f47f af31 	bne.w	8003b2c <__kernel_rem_pio2f+0x584>
 8003cca:	2000      	movs	r0, #0
 8003ccc:	2e00      	cmp	r6, #0
 8003cce:	f43f af2b 	beq.w	8003b28 <__kernel_rem_pio2f+0x580>
 8003cd2:	e7d7      	b.n	8003c84 <__kernel_rem_pio2f+0x6dc>
 8003cd4:	a90c      	add	r1, sp, #48	@ 0x30
 8003cd6:	f003 037f 	and.w	r3, r3, #127	@ 0x7f
 8003cda:	2e02      	cmp	r6, #2
 8003cdc:	f841 3022 	str.w	r3, [r1, r2, lsl #2]
 8003ce0:	f47f ad47 	bne.w	8003772 <__kernel_rem_pio2f+0x1ca>
 8003ce4:	e64b      	b.n	800397e <__kernel_rem_pio2f+0x3d6>
 8003ce6:	9b66      	ldr	r3, [sp, #408]	@ 0x198
 8003ce8:	2b03      	cmp	r3, #3
 8003cea:	f47f af1f 	bne.w	8003b2c <__kernel_rem_pio2f+0x584>
 8003cee:	2000      	movs	r0, #0
 8003cf0:	e7a9      	b.n	8003c46 <__kernel_rem_pio2f+0x69e>
 8003cf2:	9834      	ldr	r0, [sp, #208]	@ 0xd0
 8003cf4:	b126      	cbz	r6, 8003d00 <__kernel_rem_pio2f+0x758>
 8003cf6:	9a09      	ldr	r2, [sp, #36]	@ 0x24
 8003cf8:	f04f 4300 	mov.w	r3, #2147483648	@ 0x80000000
 8003cfc:	6013      	str	r3, [r2, #0]
 8003cfe:	e74b      	b.n	8003b98 <__kernel_rem_pio2f+0x5f0>
 8003d00:	9a09      	ldr	r2, [sp, #36]	@ 0x24
 8003d02:	2300      	movs	r3, #0
 8003d04:	6013      	str	r3, [r2, #0]
 8003d06:	e749      	b.n	8003b9c <__kernel_rem_pio2f+0x5f4>
 8003d08:	08004200 	.word	0x08004200

08003d0c <scalbnf>:
 8003d0c:	b510      	push	{r4, lr}
 8003d0e:	460c      	mov	r4, r1
 8003d10:	f030 4100 	bics.w	r1, r0, #2147483648	@ 0x80000000
 8003d14:	4603      	mov	r3, r0
 8003d16:	d01d      	beq.n	8003d54 <scalbnf+0x48>
 8003d18:	f1b1 4fff 	cmp.w	r1, #2139095040	@ 0x7f800000
 8003d1c:	d21b      	bcs.n	8003d56 <scalbnf+0x4a>
 8003d1e:	f010 4fff 	tst.w	r0, #2139095040	@ 0x7f800000
 8003d22:	4602      	mov	r2, r0
 8003d24:	d11b      	bne.n	8003d5e <scalbnf+0x52>
 8003d26:	f04f 4198 	mov.w	r1, #1275068416	@ 0x4c000000
 8003d2a:	f7fc ff69 	bl	8000c00 <__aeabi_fmul>
 8003d2e:	4a20      	ldr	r2, [pc, #128]	@ (8003db0 <scalbnf+0xa4>)
 8003d30:	4294      	cmp	r4, r2
 8003d32:	4603      	mov	r3, r0
 8003d34:	db2c      	blt.n	8003d90 <scalbnf+0x84>
 8003d36:	f3c0 51c7 	ubfx	r1, r0, #23, #8
 8003d3a:	4602      	mov	r2, r0
 8003d3c:	f24c 3050 	movw	r0, #50000	@ 0xc350
 8003d40:	4284      	cmp	r4, r0
 8003d42:	f1a1 0119 	sub.w	r1, r1, #25
 8003d46:	dd10      	ble.n	8003d6a <scalbnf+0x5e>
 8003d48:	491a      	ldr	r1, [pc, #104]	@ (8003db4 <scalbnf+0xa8>)
 8003d4a:	4618      	mov	r0, r3
 8003d4c:	f361 001e 	bfi	r0, r1, #0, #31
 8003d50:	f7fc ff56 	bl	8000c00 <__aeabi_fmul>
 8003d54:	bd10      	pop	{r4, pc}
 8003d56:	4601      	mov	r1, r0
 8003d58:	f7fc fe4a 	bl	80009f0 <__addsf3>
 8003d5c:	bd10      	pop	{r4, pc}
 8003d5e:	f24c 3050 	movw	r0, #50000	@ 0xc350
 8003d62:	4284      	cmp	r4, r0
 8003d64:	ea4f 51d1 	mov.w	r1, r1, lsr #23
 8003d68:	dcee      	bgt.n	8003d48 <scalbnf+0x3c>
 8003d6a:	4421      	add	r1, r4
 8003d6c:	29fe      	cmp	r1, #254	@ 0xfe
 8003d6e:	dceb      	bgt.n	8003d48 <scalbnf+0x3c>
 8003d70:	2900      	cmp	r1, #0
 8003d72:	dc11      	bgt.n	8003d98 <scalbnf+0x8c>
 8003d74:	f111 0f16 	cmn.w	r1, #22
 8003d78:	db13      	blt.n	8003da2 <scalbnf+0x96>
 8003d7a:	f101 0019 	add.w	r0, r1, #25
 8003d7e:	f022 42ff 	bic.w	r2, r2, #2139095040	@ 0x7f800000
 8003d82:	f04f 514c 	mov.w	r1, #855638016	@ 0x33000000
 8003d86:	ea42 50c0 	orr.w	r0, r2, r0, lsl #23
 8003d8a:	f7fc ff39 	bl	8000c00 <__aeabi_fmul>
 8003d8e:	bd10      	pop	{r4, pc}
 8003d90:	4909      	ldr	r1, [pc, #36]	@ (8003db8 <scalbnf+0xac>)
 8003d92:	f7fc ff35 	bl	8000c00 <__aeabi_fmul>
 8003d96:	bd10      	pop	{r4, pc}
 8003d98:	f022 42ff 	bic.w	r2, r2, #2139095040	@ 0x7f800000
 8003d9c:	ea42 50c1 	orr.w	r0, r2, r1, lsl #23
 8003da0:	bd10      	pop	{r4, pc}
 8003da2:	4905      	ldr	r1, [pc, #20]	@ (8003db8 <scalbnf+0xac>)
 8003da4:	4618      	mov	r0, r3
 8003da6:	f361 001e 	bfi	r0, r1, #0, #31
 8003daa:	f7fc ff29 	bl	8000c00 <__aeabi_fmul>
 8003dae:	bd10      	pop	{r4, pc}
 8003db0:	ffff3cb0 	.word	0xffff3cb0
 8003db4:	7149f2ca 	.word	0x7149f2ca
 8003db8:	0da24260 	.word	0x0da24260

08003dbc <floorf>:
 8003dbc:	e92d 41f0 	stmdb	sp!, {r4, r5, r6, r7, r8, lr}
 8003dc0:	f3c0 55c7 	ubfx	r5, r0, #23, #8
 8003dc4:	3d7f      	subs	r5, #127	@ 0x7f
 8003dc6:	2d16      	cmp	r5, #22
 8003dc8:	4604      	mov	r4, r0
 8003dca:	f020 4700 	bic.w	r7, r0, #2147483648	@ 0x80000000
 8003dce:	dc17      	bgt.n	8003e00 <floorf+0x44>
 8003dd0:	2d00      	cmp	r5, #0
 8003dd2:	4680      	mov	r8, r0
 8003dd4:	db1f      	blt.n	8003e16 <floorf+0x5a>
 8003dd6:	4f19      	ldr	r7, [pc, #100]	@ (8003e3c <floorf+0x80>)
 8003dd8:	412f      	asrs	r7, r5
 8003dda:	4238      	tst	r0, r7
 8003ddc:	d013      	beq.n	8003e06 <floorf+0x4a>
 8003dde:	4918      	ldr	r1, [pc, #96]	@ (8003e40 <floorf+0x84>)
 8003de0:	f7fc fe06 	bl	80009f0 <__addsf3>
 8003de4:	2100      	movs	r1, #0
 8003de6:	f7fd f8c7 	bl	8000f78 <__aeabi_fcmpgt>
 8003dea:	b160      	cbz	r0, 8003e06 <floorf+0x4a>
 8003dec:	2c00      	cmp	r4, #0
 8003dee:	da03      	bge.n	8003df8 <floorf+0x3c>
 8003df0:	f44f 0300 	mov.w	r3, #8388608	@ 0x800000
 8003df4:	412b      	asrs	r3, r5
 8003df6:	4498      	add	r8, r3
 8003df8:	ea28 0007 	bic.w	r0, r8, r7
 8003dfc:	e8bd 81f0 	ldmia.w	sp!, {r4, r5, r6, r7, r8, pc}
 8003e00:	f1b7 4fff 	cmp.w	r7, #2139095040	@ 0x7f800000
 8003e04:	d202      	bcs.n	8003e0c <floorf+0x50>
 8003e06:	4620      	mov	r0, r4
 8003e08:	e8bd 81f0 	ldmia.w	sp!, {r4, r5, r6, r7, r8, pc}
 8003e0c:	4601      	mov	r1, r0
 8003e0e:	f7fc fdef 	bl	80009f0 <__addsf3>
 8003e12:	e8bd 81f0 	ldmia.w	sp!, {r4, r5, r6, r7, r8, pc}
 8003e16:	490a      	ldr	r1, [pc, #40]	@ (8003e40 <floorf+0x84>)
 8003e18:	f7fc fdea 	bl	80009f0 <__addsf3>
 8003e1c:	2100      	movs	r1, #0
 8003e1e:	f7fd f8ab 	bl	8000f78 <__aeabi_fcmpgt>
 8003e22:	2800      	cmp	r0, #0
 8003e24:	d0ef      	beq.n	8003e06 <floorf+0x4a>
 8003e26:	2c00      	cmp	r4, #0
 8003e28:	db01      	blt.n	8003e2e <floorf+0x72>
 8003e2a:	2000      	movs	r0, #0
 8003e2c:	e7ec      	b.n	8003e08 <floorf+0x4c>
 8003e2e:	b917      	cbnz	r7, 8003e36 <floorf+0x7a>
 8003e30:	f04f 4000 	mov.w	r0, #2147483648	@ 0x80000000
 8003e34:	e7e8      	b.n	8003e08 <floorf+0x4c>
 8003e36:	4803      	ldr	r0, [pc, #12]	@ (8003e44 <floorf+0x88>)
 8003e38:	e7e6      	b.n	8003e08 <floorf+0x4c>
 8003e3a:	bf00      	nop
 8003e3c:	007fffff 	.word	0x007fffff
 8003e40:	7149f2ca 	.word	0x7149f2ca
 8003e44:	bf800000 	.word	0xbf800000

08003e48 <_init>:
 8003e48:	b5f8      	push	{r3, r4, r5, r6, r7, lr}
 8003e4a:	bf00      	nop
 8003e4c:	bcf8      	pop	{r3, r4, r5, r6, r7}
 8003e4e:	bc08      	pop	{r3}
 8003e50:	469e      	mov	lr, r3
 8003e52:	4770      	bx	lr

08003e54 <_fini>:
 8003e54:	b5f8      	push	{r3, r4, r5, r6, r7, lr}
 8003e56:	bf00      	nop
 8003e58:	bcf8      	pop	{r3, r4, r5, r6, r7}
 8003e5a:	bc08      	pop	{r3}
 8003e5c:	469e      	mov	lr, r3
 8003e5e:	4770      	bx	lr
